# file opened: main.asm
   1  0000                  device ZXSPECTRUM48
   2  0000
   3  0000                  IFDEF DOT
   4  0000 ~                    org #8000               ; DOT también en #8000 (más seguro)
   5  0000                  ELSE
   6  0000                      org #8000
   7  8000                  ENDIF
   8  8000
   9  8000                  ; Definición global de versión (fuente única)
  10  8000                  ; V = Mmp...  (M=major, m=minor, p=patch opcional)
  11  8000                  ; Ejemplos: V=12  -> 1.2
  12  8000                  ;           V=121 -> 1.2.1
  13  8000                  DEFINE V 121
  14  8000
  15  8000              ; Constantes globales
  16  8000              buffer = #C000
  17  8000              stack_top = #BFFE
  18  8000
  19  8000              text
  20  8000 C3 B3 BF         jp start
  21  8003
  22  8003                  include "modules/display.asm"
# file opened: modules/display.asm
   1+ 8003                  module Display
   2+ 8003              scr_addr = #4000
   3+ 8003
   4+ 8003              ; ============================================
   5+ 8003              ; Constantes de atributos de color
   6+ 8003              ; Formato: FBPPPIII (Flash, Bright, Paper, Ink)
   7+ 8003              ; ============================================
   8+ 8003              ATTR_NORMAL      = 107o   ; Blanco sobre negro (lista)
   9+ 8003              ATTR_HIGHLIGHT   = 160o   ; Negro sobre blanco brillante (cursor)
  10+ 8003              ATTR_CONNECTED   = 105o   ; Cyan brillante sobre negro (red conectada)
  11+ 8003              ATTR_CONN_CURSOR = 061o   ; Azul sobre amarillo (cursor en red conectada)
  12+ 8003              ATTR_STATUSBAR   = 170o   ; Negro sobre blanco brillante (barra estado)
  13+ 8003              ATTR_LOG         = 014o   ; Verde sobre azul (ventana log)
  14+ 8003              ATTR_HEADER      = 117o   ; Blanco brillante sobre azul (cabecera)
  15+ 8003              ATTR_TITLE       = 116o   ; Amarillo brillante sobre azul (título)
  16+ 8003              ATTR_RSSI        = 004o   ; Verde sobre negro (barras señal)
  17+ 8003              ATTR_SSID_INPUT  = 044o   ; Verde sobre negro (SSID seleccionado)
  18+ 8003              ATTR_PASS_LINE   = 071o   ; Blanco sobre azul
  19+ 8003              ATTR_PASS_INPUT  = 171o   ; Blanco brillante sobre azul
  20+ 8003
  21+ 8003              ; a - line number
  22+ 8003              ; c - color
  23+ 8003              ; Pinta toda la línea (32 columnas)
  24+ 8003              setAttr:
  25+ 8003 0F           	rrca
  26+ 8004 0F           	rrca
  27+ 8005 0F           	rrca
  28+ 8006 6F           	ld	l,a
  29+ 8007 E6 1F        	and	31
  30+ 8009 F6 58        	or	#58
  31+ 800B 67           	ld	h,a
  32+ 800C 7D           	ld	a,l
  33+ 800D E6 FC        	and	252
  34+ 800F 6F           	ld	l,a
  35+ 8010
  36+ 8010 54 5D            ld de, hl
  37+ 8012 13               inc de
  38+ 8013 79               ld a, c
  38+ 8014 77             ld (hl), a
  39+ 8015 01 1F 00         ld bc, #1f
  40+ 8018 ED B0            ldir
  41+ 801A C9               ret
  42+ 801B
  43+ 801B              ; a - line number
  44+ 801B              ; c - color
  45+ 801B              ; Pinta solo las primeras 22 celdas
  46+ 801B              setAttrPartial:
  47+ 801B 0F           	rrca
  48+ 801C 0F           	rrca
  49+ 801D 0F           	rrca
  50+ 801E 6F           	ld	l,a
  51+ 801F E6 1F        	and	31
  52+ 8021 F6 58        	or	#58
  53+ 8023 67           	ld	h,a
  54+ 8024 7D           	ld	a,l
  55+ 8025 E6 FC        	and	252
  56+ 8027 6F           	ld	l,a
  57+ 8028
  58+ 8028 06 16            ld b, 22
  59+ 802A 79               ld a, c
  60+ 802B              .loop
  61+ 802B 77               ld (hl), a
  62+ 802C 23               inc hl
  63+ 802D 10 FC            djnz .loop
  64+ 802F C9               ret
  65+ 8030
  66+ 8030              putStr:
  67+ 8030 7E               ld a, (hl)
  67+ 8031 A7             and a
  67+ 8032 C8             ret z
  68+ 8033 E5               push hl
  69+ 8034 CD 46 80         call putC
  70+ 8037 E1               pop hl
  71+ 8038 23               inc hl
  72+ 8039 18 F5            jr putStr
  73+ 803B
  74+ 803B              putStrLog:
  75+ 803B 7E               ld a, (hl)
  75+ 803C A7             and a
  75+ 803D C8             ret z
  76+ 803E E5               push hl
  77+ 803F CD 65 80         call putLogC
  78+ 8042 E1               pop hl
  79+ 8043 23               inc hl
  80+ 8044 18 F5            jr putStrLog
  81+ 8046
  82+ 8046              putC:
  83+ 8046 FE 0D            cp 13
  83+ 8048 28 13          jr z, .cr
  84+ 804A 2A 4C 82         ld hl, (coords)
  84+ 804D 22 AD 80       ld (drawC.coords), hl
  85+ 8050 CD A9 80         call drawC
  86+ 8053 21 4C 82         ld hl, coords
  87+ 8056 34               inc (hl)
  88+ 8057 7E               ld a,(hl)
  88+ 8058 FE 2A          cp 42
  88+ 805A 30 01          jr nc, .cr
  89+ 805C C9               ret
  90+ 805D              .cr
  91+ 805D 21 4C 82         ld hl, coords
  92+ 8060 AF               xor a
  92+ 8061 77             ld (hl), a
  93+ 8062 23               inc hl
  93+ 8063 34             inc (hl)
  94+ 8064 C9               ret
  95+ 8065
  96+ 8065              ; ============================================
  97+ 8065              ; putLogC - Escribe en la ventana de log (Líneas 19-23)
  98+ 8065              ; ============================================
  99+ 8065              putLogC:
 100+ 8065 FE 0D            cp 13
 100+ 8067 28 19          jr z, .cr
 101+ 8069 FE 20            cp ' '
 101+ 806B D8             ret c
 102+ 806C 4F               ld c,a
 103+ 806D
 104+ 806D                  ; Escribir siempre en línea 23
 105+ 806D 26 17            ld h, 23
 106+ 806F 3A A8 80         ld a, (.coord)
 107+ 8072 6F               ld l, a
 108+ 8073 22 AD 80         ld (drawC.coords), hl
 109+ 8076
 110+ 8076 79               ld a,c
 111+ 8077 CD A9 80         call drawC
 112+ 807A
 113+ 807A                  ; Avanzar cursor X
 114+ 807A 21 A8 80         ld hl, .coord
 114+ 807D 34             inc (hl)
 114+ 807E 7E             ld a,(hl)
 115+ 807F FE 2A            cp 42
 115+ 8081 D8             ret c
 116+ 8082
 117+ 8082              .cr
 118+ 8082 AF               xor a
 118+ 8083 32 A8 80       ld (.coord), a
 119+ 8086                  ; Caer en .scrollLog
 120+ 8086
 121+ 8086              .scrollLog
 122+ 8086                  ; --- SCROLL LOG: Líneas 19-23 (5 líneas) ---
 123+ 8086                  ; Método: Para cada scanline, copiar líneas 20-23 a 19-22 y limpiar línea 23
 124+ 8086                  ; Tercio 2: línea 19=#5060, línea 20=#5080, línea 23=#50E0
 125+ 8086
 126+ 8086 F3               di
 127+ 8087
 128+ 8087 06 08            ld b, 8             ; 8 scanlines por fila de texto
 129+ 8089 21 80 50         ld hl, #5080        ; Origen: Línea 20, scanline 0
 130+ 808C 11 60 50         ld de, #5060        ; Destino: Línea 19, scanline 0
 131+ 808F
 132+ 808F              .scrollLoop
 133+ 808F C5               push bc
 134+ 8090 E5               push hl
 135+ 8091 D5               push de
 136+ 8092
 137+ 8092                  ; Copiar 4 líneas de texto (128 bytes): líneas 20-23 → 19-22
 138+ 8092 01 80 00         ld bc, 128
 139+ 8095 ED B0            ldir
 140+ 8097                  ; Ahora DE apunta a #5060+128=#50E0 (línea 23) - exactamente donde limpiar
 141+ 8097
 142+ 8097                  ; Limpiar línea 23 (32 bytes)
 143+ 8097                  ; DE ya apunta al inicio de línea 23 en este scanline
 144+ 8097 EB               ex de, hl           ; HL = dirección a limpiar
 145+ 8098 06 20            ld b, 32
 146+ 809A AF               xor a
 147+ 809B              .clrLine
 148+ 809B 77               ld (hl), a
 149+ 809C 23               inc hl
 150+ 809D 10 FC            djnz .clrLine
 151+ 809F
 152+ 809F D1               pop de
 153+ 80A0 E1               pop hl
 154+ 80A1 C1               pop bc
 155+ 80A2
 156+ 80A2                  ; Avanzar al siguiente scanline (+256 bytes)
 157+ 80A2 24               inc h
 158+ 80A3 14               inc d
 159+ 80A4 10 E9            djnz .scrollLoop
 160+ 80A6
 161+ 80A6 FB               ei
 162+ 80A7 C9               ret
 163+ 80A8 00           .coord db 0
 164+ 80A9
 165+ 80A9
 166+ 80A9              drawC:
 167+ 80A9 32 BC 80         ld (.char_tmp),a
 168+ 80AC 21 00 00         ld hl, 0
 169+ 80AF              .coords = $ - 2
 170+ 80AF 45               ld b, l
 171+ 80B0 CD FF 81         call calc
 172+ 80B3 54               ld d, h
 173+ 80B4 5D               ld e, l
 174+ 80B5 32 E9 80         ld (.rot_tmp), a
 175+ 80B8 CD F0 81         call findAddr
 176+ 80BB
 177+ 80BB              ;; Get char
 178+ 80BB 3E 00            ld a, 0
 179+ 80BD              .char_tmp = $ - 1
 180+ 80BD 6F               ld l, a
 181+ 80BE 26 00            ld h, 0
 182+ 80C0 29               add hl, hl
 183+ 80C1 29               add hl, hl
 184+ 80C2 29               add hl, hl
 185+ 80C3 01 4E 82         ld bc, font
 186+ 80C6 09               add hl, bc
 187+ 80C7 E5 D5            push hl, de
 188+ 80C9              ;; Mask rotation
 189+ 80C9 3A E9 80         ld a, (.rot_tmp)
 190+ 80CC 21 FF 03         ld hl, #03ff
 191+ 80CF A7               and a
 191+ 80D0 28 0B          jr z, .drawIt
 192+ 80D2              .rot_loop
 193+ 80D2 08               ex af, af
 194+ 80D3 7D               ld a,l
 195+ 80D4 0F               rrca
 196+ 80D5 CB 1C            rr h
 197+ 80D7 CB 1D            rr l
 198+ 80D9 08               ex af, af
 199+ 80DA 3D               dec a
 200+ 80DB 20 F5            jr nz, .rot_loop
 201+ 80DD              .drawIt
 202+ 80DD 7D               ld a, l
 203+ 80DE 32 07 81         ld (.mask1), a
 204+ 80E1 7C               ld a, h
 205+ 80E2 32 10 81         ld (.mask2), a
 206+ 80E5 DD E1 D1         pop ix, de
 207+ 80E8              ;; Basic draw
 208+ 80E8 3E 00            ld a, 0
 209+ 80EA              .rot_tmp = $ - 1
 210+ 80EA 32 F4 80         ld (.rot_cnt), a
 211+ 80ED 06 08            ld b, 8
 212+ 80EF              .printIt
 213+ 80EF 1A               ld a, (de)
 214+ 80F0 67               ld h,a
 215+ 80F1 2E 00            ld l,0
 216+ 80F3 3E 00            ld a,0
 217+ 80F5              .rot_cnt = $ - 1
 218+ 80F5 A7               and a
 218+ 80F6 28 0B          jr z, .skipRot
 219+ 80F8              .rotation
 220+ 80F8 08               ex af, af
 221+ 80F9 7D               ld a, l
 222+ 80FA 0F               rrca
 223+ 80FB CB 1C            rr h
 224+ 80FD CB 1D            rr l
 225+ 80FF 08               ex af, af
 226+ 8100 3D               dec a
 227+ 8101 20 F5            jr nz, .rotation
 228+ 8103              .skipRot
 229+ 8103 DD 7E 01         ld a, (ix + 1)
 230+ 8106 E6 0F            and #0f
 231+ 8108              .mask1 = $ - 1
 232+ 8108 B5               or l
 233+ 8109 DD 77 01         ld (ix + 1), a
 234+ 810C DD 7E 00         ld a, (ix)
 235+ 810F E6 FC            and #fc
 236+ 8111              .mask2 = $ - 1
 237+ 8111 B4               or h
 238+ 8112 DD 77 00         ld (ix), a
 239+ 8115 DD 24            inc ixh
 240+ 8117 13               inc de
 241+ 8118 10 D5            djnz .printIt
 242+ 811A C9               ret
 243+ 811B
 244+ 811B              clrTop:
 245+ 811B 21 00 40         ld hl, #4000
 246+ 811E 11 01 40         ld de, #4001
 247+ 8121 01 FF 0F         ld bc, #fff
 248+ 8124 AF               xor a
 249+ 8125 77               ld (hl),a
 250+ 8126 ED B0            ldir
 251+ 8128 C9               ret
 252+ 8129
 253+ 8129              ; Limpia zona de lista (líneas 2-17)
 254+ 8129              ; Usa el mismo método que el código original: para cada scanline, limpiar todas las líneas de golpe
 255+ 8129              clrListOnly:
 256+ 8129                  ; Tercio 0: líneas 2-7 (6 líneas)
 257+ 8129 21 40 40         ld hl, #4040            ; Scanline 0, línea 2
 258+ 812C 06 08            ld b, 8                 ; 8 scanlines
 259+ 812E              .loopT0
 260+ 812E C5               push bc
 261+ 812F E5               push hl
 262+ 8130 54               ld d, h
 262+ 8131 5D             ld e, l
 262+ 8132 13             inc de
 263+ 8133 01 BF 00         ld bc, 191              ; 192 bytes (6 líneas * 32)
 264+ 8136 AF               xor a
 264+ 8137 77             ld (hl), a
 265+ 8138 ED B0            ldir
 266+ 813A E1               pop hl
 267+ 813B 01 00 01         ld bc, #100             ; Siguiente scanline (+256)
 268+ 813E 09               add hl, bc
 269+ 813F C1               pop bc
 270+ 8140 10 EC            djnz .loopT0
 271+ 8142
 272+ 8142                  ; Tercio 1: líneas 8-15 (8 líneas)
 273+ 8142 21 00 48         ld hl, #4800            ; Scanline 0, línea 8
 274+ 8145 06 08            ld b, 8
 275+ 8147              .loopT1
 276+ 8147 C5               push bc
 277+ 8148 E5               push hl
 278+ 8149 54               ld d, h
 278+ 814A 5D             ld e, l
 278+ 814B 13             inc de
 279+ 814C 01 FF 00         ld bc, 255              ; 256 bytes (8 líneas * 32)
 280+ 814F AF               xor a
 280+ 8150 77             ld (hl), a
 281+ 8151 ED B0            ldir
 282+ 8153 E1               pop hl
 283+ 8154 01 00 01         ld bc, #100
 284+ 8157 09               add hl, bc
 285+ 8158 C1               pop bc
 286+ 8159 10 EC            djnz .loopT1
 287+ 815B
 288+ 815B                  ; Tercio 2: líneas 16-17 (2 líneas)
 289+ 815B 21 00 50         ld hl, #5000            ; Scanline 0, línea 16
 290+ 815E 06 08            ld b, 8
 291+ 8160              .loopT2
 292+ 8160 C5               push bc
 293+ 8161 E5               push hl
 294+ 8162 54               ld d, h
 294+ 8163 5D             ld e, l
 294+ 8164 13             inc de
 295+ 8165 01 3F 00         ld bc, 63               ; 64 bytes (2 líneas * 32)
 296+ 8168 AF               xor a
 296+ 8169 77             ld (hl), a
 297+ 816A ED B0            ldir
 298+ 816C E1               pop hl
 299+ 816D 01 00 01         ld bc, #100
 300+ 8170 09               add hl, bc
 301+ 8171 C1               pop bc
 302+ 8172 10 EC            djnz .loopT2
 303+ 8174 C9               ret
 304+ 8175
 305+ 8175              ; Limpia solo el área de redes (líneas 6-14) - muy rápido con LDIR
 306+ 8175              clrNetworksOnly:
 307+ 8175                  ; Tercio 0: líneas 6-7 (2 líneas)
 308+ 8175                  ; Línea 6 empieza en $40C0 (scanline 0)
 309+ 8175 21 C0 40         ld hl, #40C0
 310+ 8178 06 08            ld b, 8                 ; 8 scanlines
 311+ 817A              .loopN0
 312+ 817A C5               push bc
 313+ 817B E5               push hl
 314+ 817C 54               ld d, h
 314+ 817D 5D             ld e, l
 314+ 817E 13             inc de
 315+ 817F 01 3F 00         ld bc, 63               ; 64 bytes (2 líneas * 32)
 316+ 8182 AF               xor a
 316+ 8183 77             ld (hl), a
 317+ 8184 ED B0            ldir
 318+ 8186 E1               pop hl
 319+ 8187 01 00 01         ld bc, #100
 320+ 818A 09               add hl, bc
 321+ 818B C1               pop bc
 322+ 818C 10 EC            djnz .loopN0
 323+ 818E
 324+ 818E                  ; Tercio 1: líneas 8-14 (7 líneas)
 325+ 818E 21 00 48         ld hl, #4800
 326+ 8191 06 08            ld b, 8
 327+ 8193              .loopN1
 328+ 8193 C5               push bc
 329+ 8194 E5               push hl
 330+ 8195 54               ld d, h
 330+ 8196 5D             ld e, l
 330+ 8197 13             inc de
 331+ 8198 01 DF 00         ld bc, 223              ; 224 bytes (7 líneas * 32)
 332+ 819B AF               xor a
 332+ 819C 77             ld (hl), a
 333+ 819D ED B0            ldir
 334+ 819F E1               pop hl
 335+ 81A0 01 00 01         ld bc, #100
 336+ 81A3 09               add hl, bc
 337+ 81A4 C1               pop bc
 338+ 81A5 10 EC            djnz .loopN1
 339+ 81A7
 340+ 81A7                  ; Limpiar atributos del área de redes (líneas 6-14)
 341+ 81A7                  ; Evita que queden colores residuales (p.ej. red conectada) tras un rescan.
 342+ 81A7 3E 47            ld a, ATTR_NORMAL
 343+ 81A9 21 C0 58         ld hl, #58C0             ; 0x5800 + (6 * 32)
 344+ 81AC 11 C1 58         ld de, #58C1
 345+ 81AF 01 1F 01         ld bc, 287               ; 9 líneas * 32 - 1
 346+ 81B2 77               ld (hl), a
 347+ 81B3 ED B0            ldir
 348+ 81B5 C9               ret
 349+ 81B6
 350+ 81B6              clrscr:
 351+ 81B6 AF               xor a
 352+ 81B7 D3 FE            out (#fe), a
 353+ 81B9
 354+ 81B9                  ; 1. Limpiar píxeles
 355+ 81B9 21 00 40         ld hl, #4000
 356+ 81BC 11 01 40         ld de, #4001
 357+ 81BF 01 FF 17         ld bc, #17ff
 358+ 81C2 77               ld (hl),a
 359+ 81C3 ED B0            ldir
 360+ 81C5
 361+ 81C5                  ; 2. Colores líneas 0-17: Blanco sobre Negro (lista + info)
 362+ 81C5 3E 47            ld a, ATTR_NORMAL
 363+ 81C7 21 00 58         ld hl, #5800
 364+ 81CA 11 01 58         ld de, #5801
 365+ 81CD 01 3F 02         ld bc, 575              ; 18 líneas * 32 - 1 = 575
 366+ 81D0 77               ld (hl), a
 367+ 81D1 ED B0            ldir
 368+ 81D3
 369+ 81D3                  ; 3. Colores línea 18: Status Bar (Negro sobre Blanco)
 370+ 81D3 3E 78            ld a, ATTR_STATUSBAR
 371+ 81D5 21 40 5A         ld hl, #5A40            ; Línea 18
 372+ 81D8 11 41 5A         ld de, #5A41
 373+ 81DB 01 1F 00         ld bc, 31
 374+ 81DE 77               ld (hl), a
 375+ 81DF ED B0            ldir
 376+ 81E1
 377+ 81E1                  ; 4. Colores líneas 19-23: Log (Verde sobre Azul)
 378+ 81E1 3E 0C            ld a, ATTR_LOG
 379+ 81E3 21 60 5A         ld hl, #5A60            ; Línea 19
 380+ 81E6 11 61 5A         ld de, #5A61
 381+ 81E9 01 9F 00         ld bc, 159              ; 5 líneas * 32 - 1 = 159
 382+ 81EC 77               ld (hl), a
 383+ 81ED ED B0            ldir
 384+ 81EF C9               ret
 385+ 81F0
 386+ 81F0              findAddr:
 387+ 81F0 7A               LD A,D
 388+ 81F1 E6 07            AND 7
 389+ 81F3 0F               RRCA
 390+ 81F4 0F               RRCA
 391+ 81F5 0F               RRCA
 392+ 81F6 B3               OR E
 393+ 81F7 5F               LD E,A
 394+ 81F8 7A               LD A,D
 395+ 81F9 E6 18            AND 24
 396+ 81FB F6 40            OR #40
 397+ 81FD 57               LD D,A
 398+ 81FE C9               ret
 399+ 81FF
 400+ 81FF              ; ============================================
 401+ 81FF              ; calc - Calcula offset X en pixels
 402+ 81FF              ; in:   b - x column (0-41)
 403+ 81FF              ; out:  l - byte column (0-31)
 404+ 81FF              ;       a - pixel offset (0-7)
 405+ 81FF              ; ============================================
 406+ 81FF              calc:
 407+ 81FF 78               ld a, b
 408+ 8200 A7               and a
 409+ 8201 28 0F            jr z, .zero
 410+ 8203
 411+ 8203                  ; A = B * 6
 412+ 8203 87               add a, a        ; A = B * 2
 413+ 8204 4F               ld c, a         ; Guardar
 414+ 8205 87               add a, a        ; A = B * 4
 415+ 8206 81               add a, c        ; A = B * 6
 416+ 8207
 417+ 8207                  ; L = A / 8, A = A % 8
 418+ 8207 4F               ld c, a
 419+ 8208 E6 07            and 7           ; A % 8
 420+ 820A 69               ld l, c
 421+ 820B CB 3D            srl l
 422+ 820D CB 3D            srl l
 423+ 820F CB 3D            srl l           ; L = Total / 8
 424+ 8211 C9               ret
 425+ 8212
 426+ 8212              .zero
 427+ 8212 AF               xor a
 428+ 8213 6F               ld l, a
 429+ 8214 C9               ret
 430+ 8215
 431+ 8215              clearCell:
 432+ 8215 2A 4C 82         ld hl, (coords)
 433+ 8218 45               ld b, l
 434+ 8219 CD FF 81         call calc
 435+ 821C 54               ld d, h
 436+ 821D 5D               ld e, l
 437+ 821E 32 25 82         ld (.rot_tmp), a
 438+ 8221 CD F0 81         call findAddr
 439+ 8224
 440+ 8224 3E 00            ld a, 0
 441+ 8226              .rot_tmp = $ - 1
 442+ 8226 21 FF 03         ld hl, #03ff
 443+ 8229 A7               and a
 444+ 822A 28 0B            jr z, .gotMask
 445+ 822C              .rotMask
 446+ 822C F5               push af
 447+ 822D 7D               ld a, l
 448+ 822E 0F               rrca
 449+ 822F CB 1C            rr h
 450+ 8231 CB 1D            rr l
 451+ 8233 F1               pop af
 452+ 8234 3D               dec a
 453+ 8235 20 F5            jr nz, .rotMask
 454+ 8237              .gotMask
 455+ 8237 06 08            ld b, 8
 456+ 8239              .clearLoop
 457+ 8239 DD 7E 01         ld a, (ix + 1)
 458+ 823C A5               and l
 459+ 823D DD 77 01         ld (ix + 1), a
 460+ 8240 DD 7E 00         ld a, (ix)
 461+ 8243 A4               and h
 462+ 8244 DD 77 00         ld (ix), a
 463+ 8247 DD 24            inc ixh
 464+ 8249 10 EE            djnz .clearLoop
 465+ 824B C9               ret
 466+ 824C
 467+ 824C 00 00        coords dw 0
 468+ 824E              font incbin "../../assets/font.bin"
 469+ 8A4E
 470+ 8A4E              ; ============================================
 471+ 8A4E              ; compareStringZ - Compara dos strings Z-terminated
 472+ 8A4E              ; Entrada: HL, DE = punteros a strings
 473+ 8A4E              ; Salida:  Z=1 si iguales, Z=0 si diferentes
 474+ 8A4E              ;          CF=0 siempre
 475+ 8A4E              ; Destruye: A, BC
 476+ 8A4E              ; ============================================
 477+ 8A4E              compareStringZ:
 478+ 8A4E              .loop
 479+ 8A4E 1A               ld a, (de)
 480+ 8A4F 4F               ld c, a
 481+ 8A50 7E               ld a, (hl)
 482+ 8A51 B9               cp c
 483+ 8A52 C0               ret nz              ; Diferentes -> Z=0
 484+ 8A53 A7               and a
 485+ 8A54 C8               ret z               ; Ambos 0 -> iguales, Z=1
 486+ 8A55 23               inc hl
 487+ 8A56 13               inc de
 488+ 8A57 18 F5            jr .loop
 489+ 8A59
 490+ 8A59                  endmodule
 491+ 8A59
 492+ 8A59                  macro setLineColor line, color
 493+ 8A59 ~                ld a, line, c, color
 494+ 8A59 ~                call Display.setAttr
 495+ 8A59                  endm
 496+ 8A59
 497+ 8A59                  macro gotoXY x, y
 498+ 8A59 ~                ld hl, x or (y<<8)
 499+ 8A59 ~                ld (Display.coords), hl
 500+ 8A59                  endm
 501+ 8A59
 502+ 8A59                  macro printMsg ptr
 503+ 8A59 ~                ld hl, ptr
 503+ 8A59 ~              call Display.putStr
 504+ 8A59                  endm
 505+ 8A59
# file closed: modules/display.asm
  23  8A59                  include "modules/wifi.asm"
# file opened: modules/wifi.asm
   1+ 8A59                  MACRO EspSend Text
   2+ 8A59 ~                ld hl, .txtB
   3+ 8A59 ~                ld e, (.txtE - .txtB)
   4+ 8A59 ~                call Wifi.espSend
   5+ 8A59 ~                jr .txtE
   6+ 8A59 ~            .txtB
   7+ 8A59 ~                db Text
   8+ 8A59 ~            .txtE
   9+ 8A59                  ENDM
  10+ 8A59
  11+ 8A59                  MACRO EspCmd Text
  12+ 8A59 ~                ld hl, .txtB
  13+ 8A59 ~                ld e, (.txtE - .txtB)
  14+ 8A59 ~                call Wifi.espSend
  15+ 8A59 ~                jr .txtE
  16+ 8A59 ~            .txtB
  17+ 8A59 ~                db Text
  18+ 8A59 ~                db 13, 10
  19+ 8A59 ~            .txtE
  20+ 8A59                  ENDM
  21+ 8A59
  22+ 8A59                  MACRO EspCmdOkErr text
  23+ 8A59 ~                EspCmd text
  24+ 8A59 ~                call Wifi.checkOkErr
  25+ 8A59                  ENDM
  26+ 8A59
  27+ 8A59                  module Wifi
  28+ 8A59
  29+ 8A59              ; ============================================
  30+ 8A59              ; UART lock (evita competencia con UI.checkAsyncWifi)
  31+ 8A59              ; ============================================
  32+ 8A59              uartLock:
  33+ 8A59 3E 01            ld a, 1
  34+ 8A5B 32 5F 92         ld (uart_busy), a
  35+ 8A5E C9               ret
  36+ 8A5F
  37+ 8A5F              uartUnlock:
  38+ 8A5F AF               xor a
  39+ 8A60 32 5F 92         ld (uart_busy), a
  40+ 8A63 C9               ret
  41+ 8A64
  42+ 8A64              ; Constantes de configuración
  43+ 8A64              MAX_NETWORKS    = 20          ; Máximo número de redes a almacenar
  44+ 8A64              MAX_SSID_LEN    = 32          ; Longitud máxima de SSID
  45+ 8A64              BUFFER_END      = buffer + (MAX_NETWORKS * (MAX_SSID_LEN + 1))
  46+ 8A64              BUFFER_SIZE     = (MAX_NETWORKS * (MAX_SSID_LEN + 1))
  47+ 8A64              MAX_RETRIES     = 3           ; Reintentos en init
  48+ 8A64
  49+ 8A64              checkConnection:
  50+ 8A64 CD 8A 8B         call flushInput
  51+ 8A67
  52+ 8A67                  ; Wake up ESP and consume full response.
  53+ 8A67                  ; This avoids stray "OK" bytes remaining in RX and contaminating the next query.
  54+ 8A67                  EspCmd "AT"
  54+ 8A67 21 71 8A    >    ld hl, .txtB
  54+ 8A6A 1E 04       >    ld e, (.txtE - .txtB)
  54+ 8A6C CD BC 8E    >    call Wifi.espSend
  54+ 8A6F 18 04       >    jr .txtE
  54+ 8A71             >.txtB
  54+ 8A71 41 54       >    db "AT"
  54+ 8A73 0D 0A       >    db 13, 10
  54+ 8A75             >.txtE
  55+ 8A75 CD 55 8F         call checkOkErr
  56+ 8A78 CD 8A 8B         call flushInput
  57+ 8A7B
  58+ 8A7B                  ; Clear stored SSID
  59+ 8A7B 21 75 92         ld hl, connected_ssid
  60+ 8A7E 36 00            ld (hl), 0
  61+ 8A80
  62+ 8A80                  ; Try different query variants for maximum AT firmware compatibility
  63+ 8A80                  EspCmd "AT+CWJAP?"
  63+ 8A80 21 8A 8A    >    ld hl, .txtB
  63+ 8A83 1E 0B       >    ld e, (.txtE - .txtB)
  63+ 8A85 CD BC 8E    >    call Wifi.espSend
  63+ 8A88 18 0B       >    jr .txtE
  63+ 8A8A             >.txtB
  63+ 8A8A 41 54 2B 43 >    db "AT+CWJAP?"
  63+ 8A8E 57 4A 41 50 >
  63+ 8A92 3F          >
  63+ 8A93 0D 0A       >    db 13, 10
  63+ 8A95             >.txtE
  64+ 8A95 CD E9 8A         call .waitCwJAP
  65+ 8A98 30 48            jr nc, .connected
  66+ 8A9A
  67+ 8A9A CD 8A 8B         call flushInput
  68+ 8A9D                  EspCmd "AT+CWJAP_CUR?"
  68+ 8A9D 21 A7 8A    >    ld hl, .txtB
  68+ 8AA0 1E 0F       >    ld e, (.txtE - .txtB)
  68+ 8AA2 CD BC 8E    >    call Wifi.espSend
  68+ 8AA5 18 0F       >    jr .txtE
  68+ 8AA7             >.txtB
  68+ 8AA7 41 54 2B 43 >    db "AT+CWJAP_CUR?"
  68+ 8AAB 57 4A 41 50 >
  68+ 8AAF 5F 43 55 52 >
  68+ 8AB3 3F          >
  68+ 8AB4 0D 0A       >    db 13, 10
  68+ 8AB6             >.txtE
  69+ 8AB6 CD E9 8A         call .waitCwJAP
  70+ 8AB9 30 27            jr nc, .connected
  71+ 8ABB
  72+ 8ABB CD 8A 8B         call flushInput
  73+ 8ABE                  EspCmd "AT+CWJAP_DEF?"
  73+ 8ABE 21 C8 8A    >    ld hl, .txtB
  73+ 8AC1 1E 0F       >    ld e, (.txtE - .txtB)
  73+ 8AC3 CD BC 8E    >    call Wifi.espSend
  73+ 8AC6 18 0F       >    jr .txtE
  73+ 8AC8             >.txtB
  73+ 8AC8 41 54 2B 43 >    db "AT+CWJAP_DEF?"
  73+ 8ACC 57 4A 41 50 >
  73+ 8AD0 5F 44 45 46 >
  73+ 8AD4 3F          >
  73+ 8AD5 0D 0A       >    db 13, 10
  73+ 8AD7             >.txtE
  74+ 8AD7 CD E9 8A         call .waitCwJAP
  75+ 8ADA 30 06            jr nc, .connected
  76+ 8ADC
  77+ 8ADC                  ; Not connected
  78+ 8ADC AF               xor a
  79+ 8ADD 32 5E 92         ld (is_connected), a
  80+ 8AE0 37               scf
  81+ 8AE1 C9               ret
  82+ 8AE2
  83+ 8AE2              .connected
  84+ 8AE2 3E 01            ld a, 1
  85+ 8AE4 32 5E 92         ld (is_connected), a
  86+ 8AE7 B7               or a
  87+ 8AE8 C9               ret
  88+ 8AE9
  89+ 8AE9              ; ------------------------------------------------------------
  90+ 8AE9              ; .waitCwJAP
  91+ 8AE9              ;   Waits for a +CWJAP... line and extracts SSID.
  92+ 8AE9              ;   Returns: CF=0 if connected (SSID extracted), CF=1 otherwise.
  93+ 8AE9              ; ------------------------------------------------------------
  94+ 8AE9              .waitCwJAP
  95+ 8AE9 06 08            ld b, 8                      ; allow several initial timeouts
  96+ 8AEB              .loop
  97+ 8AEB CD D6 B3         call Uart.readTimeout
  98+ 8AEE 38 04            jr c, .got
  99+ 8AF0 10 F9            djnz .loop
 100+ 8AF2 37               scf
 101+ 8AF3 C9               ret
 102+ 8AF4
 103+ 8AF4              .got
 104+ 8AF4 FE 2B            cp '+'
 104+ 8AF6 28 1D          jr z, .plusFound
 105+ 8AF8 FE 4E            cp 'N'
 105+ 8AFA 28 14          jr z, .noAP
 106+ 8AFC FE 45            cp 'E'
 106+ 8AFE 28 0B          jr z, .errorLine
 107+ 8B00 FE 4F            cp 'O'
 107+ 8B02 28 02          jr z, .okLine
 108+ 8B04 18 E5            jr .loop
 109+ 8B06
 110+ 8B06              .okLine
 111+ 8B06                  ; OK can appear (e.g., from a previous command). Do not treat it as definitive.
 112+ 8B06 CD 81 8B         call .flushToLF
 113+ 8B09 18 E0            jr .loop
 114+ 8B0B
 115+ 8B0B              .errorLine
 116+ 8B0B                  ; ERROR can also be stale. Ignore and keep waiting for +CWJAP / No AP.
 117+ 8B0B CD 81 8B         call .flushToLF
 118+ 8B0E 18 DB            jr .loop
 119+ 8B10
 120+ 8B10              .noAP
 121+ 8B10                  ; Consume rest of line ("No AP")
 122+ 8B10 CD 81 8B         call .flushToLF
 123+ 8B13 37               scf
 124+ 8B14 C9               ret
 125+ 8B15
 126+ 8B15              .plusFound
 127+ 8B15                  ; Expect CWJAP (possibly with _CUR/_DEF suffix)
 128+ 8B15 CD D6 B3         call Uart.readTimeout
 128+ 8B18 30 65          jr nc, .fail
 129+ 8B1A FE 43            cp 'C'
 129+ 8B1C 20 CD          jr nz, .loop
 130+ 8B1E CD D6 B3         call Uart.readTimeout
 130+ 8B21 30 5C          jr nc, .fail
 131+ 8B23 FE 57            cp 'W'
 131+ 8B25 20 C4          jr nz, .loop
 132+ 8B27 CD D6 B3         call Uart.readTimeout
 132+ 8B2A 30 53          jr nc, .fail
 133+ 8B2C FE 4A            cp 'J'
 133+ 8B2E 20 BB          jr nz, .loop
 134+ 8B30 CD D6 B3         call Uart.readTimeout
 134+ 8B33 30 4A          jr nc, .fail
 135+ 8B35 FE 41            cp 'A'
 135+ 8B37 20 B2          jr nz, .loop
 136+ 8B39 CD D6 B3         call Uart.readTimeout
 136+ 8B3C 30 41          jr nc, .fail
 137+ 8B3E FE 50            cp 'P'
 137+ 8B40 20 A9          jr nz, .loop
 138+ 8B42
 139+ 8B42                  ; Accept ':' directly, or skip suffix until ':'
 140+ 8B42              .readUntilColon
 141+ 8B42 CD D6 B3         call Uart.readTimeout
 141+ 8B45 30 38          jr nc, .fail
 142+ 8B47 FE 3A            cp ':'
 142+ 8B49 28 02          jr z, .afterColon
 143+ 8B4B 18 F5            jr .readUntilColon
 144+ 8B4D
 145+ 8B4D              .afterColon
 146+ 8B4D                  ; Find opening quote
 147+ 8B4D              .findQuote
 148+ 8B4D CD D6 B3         call Uart.readTimeout
 148+ 8B50 30 2D          jr nc, .fail
 149+ 8B52 FE 22            cp '"'
 149+ 8B54 20 F7          jr nz, .findQuote
 150+ 8B56
 151+ 8B56                  ; Read SSID until closing quote (bounded)
 152+ 8B56 21 75 92         ld hl, connected_ssid
 153+ 8B59 06 20            ld b, MAX_SSID_LEN
 154+ 8B5B              .readSSID
 155+ 8B5B CD D6 B3         call Uart.readTimeout
 155+ 8B5E 30 1F          jr nc, .fail
 156+ 8B60 FE 22            cp '"'
 156+ 8B62 28 14          jr z, .gotSSID
 157+ 8B64 77               ld (hl), a
 158+ 8B65 23               inc hl
 159+ 8B66 10 F3            djnz .readSSID
 160+ 8B68
 161+ 8B68                  ; Buffer full: only accept if the very next char closes the quote
 162+ 8B68              .waitClosingQuote
 163+ 8B68 CD D6 B3         call Uart.readTimeout
 163+ 8B6B 30 12          jr nc, .fail
 164+ 8B6D FE 22            cp '"'
 164+ 8B6F 28 07          jr z, .gotSSID
 165+ 8B71                  ; SSID too long or malformed line: avoid buffer overrun
 166+ 8B71 AF               xor a
 167+ 8B72 77               ld (hl), a
 168+ 8B73 CD 81 8B         call .flushToLF
 169+ 8B76 37               scf
 170+ 8B77 C9               ret
 171+ 8B78
 172+ 8B78              .gotSSID
 173+ 8B78 AF               xor a
 174+ 8B79 77               ld (hl), a
 175+ 8B7A
 176+ 8B7A                  ; Flush remaining line
 177+ 8B7A CD 81 8B         call .flushToLF
 178+ 8B7D
 179+ 8B7D B7               or a                        ; CF=0
 180+ 8B7E C9               ret
 181+ 8B7F
 182+ 8B7F              .fail
 183+ 8B7F 37               scf
 184+ 8B80 C9               ret
 185+ 8B81
 186+ 8B81              .flushToLF
 187+ 8B81 CD D6 B3         call Uart.readTimeout
 188+ 8B84 D0               ret nc
 189+ 8B85 FE 0A            cp 10
 189+ 8B87 20 F8          jr nz, .flushToLF
 190+ 8B89 C9               ret
 191+ 8B8A
 192+ 8B8A              flushInput:
 193+ 8B8A CD B8 BE         call UartImpl.uartRead
 194+ 8B8D 38 FB            jr c, flushInput
 195+ 8B8F C9               ret
 196+ 8B90
 197+ 8B90              init:
 198+ 8B90 CD 8A 8B         call flushInput
 199+ 8B93
 200+ 8B93                  EspSend "+++"
 200+ 8B93 21 9D 8B    >    ld hl, .txtB
 200+ 8B96 1E 03       >    ld e, (.txtE - .txtB)
 200+ 8B98 CD BC 8E    >    call Wifi.espSend
 200+ 8B9B 18 03       >    jr .txtE
 200+ 8B9D             >.txtB
 200+ 8B9D 2B 2B 2B    >    db "+++"
 200+ 8BA0             >.txtE
 201+ 8BA0 06 32            ld b, 50
 202+ 8BA2              .wait_init
 203+ 8BA2 76               halt
 204+ 8BA3 10 FD            djnz .wait_init
 205+ 8BA5
 206+ 8BA5 3E 03            ld a, MAX_RETRIES
 207+ 8BA7 32 5D 92         ld (retry_count), a
 208+ 8BAA
 209+ 8BAA              .retry_reset
 210+ 8BAA CD 87 8C         call reset
 211+ 8BAD 30 12            jr nc, .reset_ok
 212+ 8BAF
 213+ 8BAF 3A 5D 92         ld a, (retry_count)
 214+ 8BB2 3D               dec a
 215+ 8BB3 32 5D 92         ld (retry_count), a
 216+ 8BB6 28 07            jr z, .reset_failed
 217+ 8BB8
 218+ 8BB8 06 64            ld b, 100
 219+ 8BBA              .retry_wait
 220+ 8BBA 76               halt
 221+ 8BBB 10 FD            djnz .retry_wait
 222+ 8BBD 18 EB            jr .retry_reset
 223+ 8BBF
 224+ 8BBF              .reset_failed
 225+ 8BBF 37               scf
 226+ 8BC0 C9               ret
 227+ 8BC1
 228+ 8BC1              .reset_ok
 229+ 8BC1                  EspCmdOkErr "ATE0"
 229+ 8BC1             >    EspCmd "ATE0"
 229+ 8BC1 21 CB 8B    >    ld hl, .txtB
 229+ 8BC4 1E 06       >    ld e, (.txtE - .txtB)
 229+ 8BC6 CD BC 8E    >    call Wifi.espSend
 229+ 8BC9 18 06       >    jr .txtE
 229+ 8BCB             >.txtB
 229+ 8BCB 41 54 45 30 >    db "ATE0"
 229+ 8BCF 0D 0A       >    db 13, 10
 229+ 8BD1             >.txtE
 229+ 8BD1 CD 55 8F    >    call Wifi.checkOkErr
 230+ 8BD4                  EspCmdOkErr "AT+SYSSTORE=1"
 230+ 8BD4             >    EspCmd "AT+SYSSTORE=1"
 230+ 8BD4 21 DE 8B    >    ld hl, .txtB
 230+ 8BD7 1E 0F       >    ld e, (.txtE - .txtB)
 230+ 8BD9 CD BC 8E    >    call Wifi.espSend
 230+ 8BDC 18 0F       >    jr .txtE
 230+ 8BDE             >.txtB
 230+ 8BDE 41 54 2B 53 >    db "AT+SYSSTORE=1"
 230+ 8BE2 59 53 53 54 >
 230+ 8BE6 4F 52 45 3D >
 230+ 8BEA 31          >
 230+ 8BEB 0D 0A       >    db 13, 10
 230+ 8BED             >.txtE
 230+ 8BED CD 55 8F    >    call Wifi.checkOkErr
 231+ 8BF0 38 1C            jr c, .old_fw_detect
 232+ 8BF2                  EspCmdOkErr "AT+CWMODE=1"
 232+ 8BF2             >    EspCmd "AT+CWMODE=1"
 232+ 8BF2 21 FC 8B    >    ld hl, .txtB
 232+ 8BF5 1E 0D       >    ld e, (.txtE - .txtB)
 232+ 8BF7 CD BC 8E    >    call Wifi.espSend
 232+ 8BFA 18 0D       >    jr .txtE
 232+ 8BFC             >.txtB
 232+ 8BFC 41 54 2B 43 >    db "AT+CWMODE=1"
 232+ 8C00 57 4D 4F 44 >
 232+ 8C04 45 3D 31    >
 232+ 8C07 0D 0A       >    db 13, 10
 232+ 8C09             >.txtE
 232+ 8C09 CD 55 8F    >    call Wifi.checkOkErr
 233+ 8C0C 18 23            jr .check_mode
 234+ 8C0E
 235+ 8C0E              .old_fw_detect
 236+ 8C0E 3E 01            ld a, 1
 237+ 8C10 32 5C 92         ld (old_fw), a
 238+ 8C13                  EspCmdOkErr "AT+CWMODE_DEF=1"
 238+ 8C13             >    EspCmd "AT+CWMODE_DEF=1"
 238+ 8C13 21 1D 8C    >    ld hl, .txtB
 238+ 8C16 1E 11       >    ld e, (.txtE - .txtB)
 238+ 8C18 CD BC 8E    >    call Wifi.espSend
 238+ 8C1B 18 11       >    jr .txtE
 238+ 8C1D             >.txtB
 238+ 8C1D 41 54 2B 43 >    db "AT+CWMODE_DEF=1"
 238+ 8C21 57 4D 4F 44 >
 238+ 8C25 45 5F 44 45 >
 238+ 8C29 46 3D 31    >
 238+ 8C2C 0D 0A       >    db 13, 10
 238+ 8C2E             >.txtE
 238+ 8C2E CD 55 8F    >    call Wifi.checkOkErr
 239+ 8C31
 240+ 8C31              .check_mode
 241+ 8C31 38 3A            jr c, .err
 242+ 8C33                  EspCmdOkErr "AT+CWAUTOCONN=1"
 242+ 8C33             >    EspCmd "AT+CWAUTOCONN=1"
 242+ 8C33 21 3D 8C    >    ld hl, .txtB
 242+ 8C36 1E 11       >    ld e, (.txtE - .txtB)
 242+ 8C38 CD BC 8E    >    call Wifi.espSend
 242+ 8C3B 18 11       >    jr .txtE
 242+ 8C3D             >.txtB
 242+ 8C3D 41 54 2B 43 >    db "AT+CWAUTOCONN=1"
 242+ 8C41 57 41 55 54 >
 242+ 8C45 4F 43 4F 4E >
 242+ 8C49 4E 3D 31    >
 242+ 8C4C 0D 0A       >    db 13, 10
 242+ 8C4E             >.txtE
 242+ 8C4E CD 55 8F    >    call Wifi.checkOkErr
 243+ 8C51 38 1A            jr c, .err
 244+ 8C53                  EspCmdOkErr "AT+CWQAP"
 244+ 8C53             >    EspCmd "AT+CWQAP"
 244+ 8C53 21 5D 8C    >    ld hl, .txtB
 244+ 8C56 1E 0A       >    ld e, (.txtE - .txtB)
 244+ 8C58 CD BC 8E    >    call Wifi.espSend
 244+ 8C5B 18 0A       >    jr .txtE
 244+ 8C5D             >.txtB
 244+ 8C5D 41 54 2B 43 >    db "AT+CWQAP"
 244+ 8C61 57 51 41 50 >
 244+ 8C65 0D 0A       >    db 13, 10
 244+ 8C67             >.txtE
 244+ 8C67 CD 55 8F    >    call Wifi.checkOkErr
 245+ 8C6A 38 01            jr c, .err
 246+ 8C6C C9               ret
 247+ 8C6D
 248+ 8C6D              .err
 249+ 8C6D 21 7B 8C         ld hl, .err_msg
 250+ 8C70 CD 3B 80         call Display.putStrLog
 251+ 8C73 06 64            ld b, 100
 252+ 8C75              .wait_err
 253+ 8C75 76               halt
 254+ 8C76 10 FD            djnz .wait_err
 255+ 8C78 FB               ei
 256+ 8C79 37               scf
 257+ 8C7A C9               ret
 258+ 8C7B 0D 45 53 50  .err_msg db 13, "ESP error!", 0
 258+ 8C7F 20 65 72 72
 258+ 8C83 6F 72 21 00
 259+ 8C87
 260+ 8C87              reset:
 261+ 8C87 CD 8A 8B         call flushInput
 262+ 8C8A
 263+ 8C8A                  EspCmdOkErr "AT"
 263+ 8C8A             >    EspCmd "AT"
 263+ 8C8A 21 94 8C    >    ld hl, .txtB
 263+ 8C8D 1E 04       >    ld e, (.txtE - .txtB)
 263+ 8C8F CD BC 8E    >    call Wifi.espSend
 263+ 8C92 18 04       >    jr .txtE
 263+ 8C94             >.txtB
 263+ 8C94 41 54       >    db "AT"
 263+ 8C96 0D 0A       >    db 13, 10
 263+ 8C98             >.txtE
 263+ 8C98 CD 55 8F    >    call Wifi.checkOkErr
 264+ 8C9B 38 40            jr c, .timeout_err
 265+ 8C9D                  EspCmd "AT+RST"
 265+ 8C9D 21 A7 8C    >    ld hl, .txtB
 265+ 8CA0 1E 08       >    ld e, (.txtE - .txtB)
 265+ 8CA2 CD BC 8E    >    call Wifi.espSend
 265+ 8CA5 18 08       >    jr .txtE
 265+ 8CA7             >.txtB
 265+ 8CA7 41 54 2B 52 >    db "AT+RST"
 265+ 8CAB 53 54       >
 265+ 8CAD 0D 0A       >    db 13, 10
 265+ 8CAF             >.txtE
 266+ 8CAF
 267+ 8CAF                  ; Bounded number of readTimeout misses while waiting for "ready"
 268+ 8CAF 11 C8 00         ld de, 200
 269+ 8CB2              .loop
 270+ 8CB2 CD D6 B3         call Uart.readTimeout
 271+ 8CB5 30 21            jr nc, .check_timeout
 272+ 8CB7
 273+ 8CB7 FE 65            cp 'e'
 273+ 8CB9 20 F7          jr nz, .loop
 274+ 8CBB CD D6 B3         call Uart.readTimeout
 274+ 8CBE 30 1D          jr nc, .timeout_err
 275+ 8CC0 FE 61            cp 'a'
 275+ 8CC2 20 EE          jr nz, .loop
 276+ 8CC4 CD D6 B3         call Uart.readTimeout
 276+ 8CC7 30 14          jr nc, .timeout_err
 277+ 8CC9 FE 64            cp 'd'
 277+ 8CCB 20 E5          jr nz, .loop
 278+ 8CCD CD D6 B3         call Uart.readTimeout
 278+ 8CD0 30 0B          jr nc, .timeout_err
 279+ 8CD2 FE 79            cp 'y'
 279+ 8CD4 20 DC          jr nz, .loop
 280+ 8CD6 B7               or a
 281+ 8CD7 C9               ret
 282+ 8CD8
 283+ 8CD8              .check_timeout
 284+ 8CD8 1B               dec de
 285+ 8CD9 7A               ld a, d
 286+ 8CDA B3               or e
 287+ 8CDB 20 D5            jr nz, .loop
 288+ 8CDD              .timeout_err
 289+ 8CDD 21 E5 8C         ld hl, .timeout_msg
 290+ 8CE0 CD 3B 80         call Display.putStrLog
 291+ 8CE3 37               scf
 292+ 8CE4 C9               ret
 293+ 8CE5 0D 45 53 50  .timeout_msg db 13, "ESP timeout!", 0
 293+ 8CE9 20 74 69 6D
 293+ 8CED 65 6F 75 74
 293+ 8CF1 21 00
 294+ 8CF3
 295+ 8CF3              getList:
 296+ 8CF3 CD 59 8A         call uartLock
 297+ 8CF6 CD 8A 8B         call flushInput
 298+ 8CF9
 299+ 8CF9                  ; --- LIMPIEZA DE MEMORIA SEGURA (LDIR) ---
 300+ 8CF9 21 00 C0         ld hl, buffer
 301+ 8CFC 11 01 C0         ld de, buffer + 1
 302+ 8CFF 01 93 02         ld bc, BUFFER_SIZE - 1
 303+ 8D02 AF               xor a
 304+ 8D03 77               ld (hl), a      ; Poner a 0 el primer byte
 305+ 8D04 ED B0            ldir            ; Extender el 0 a todo el buffer
 306+ 8D06                  ; -----------------------------------------
 307+ 8D06
 308+ 8D06 21 00 C0         ld hl, buffer
 309+ 8D09 22 55 92         ld (buff_ptr), hl
 310+ 8D0C 21 61 92         ld hl, rssi_buffer
 311+ 8D0F 22 57 92         ld (rssi_ptr), hl
 312+ 8D12 AF               xor a
 313+ 8D13 32 59 92         ld (networks_count), a
 314+ 8D16 32 5A 92         ld (seen_cwlap), a
 315+ 8D19 32 5B 92         ld (ok_ignored), a
 316+ 8D1C
 317+ 8D1C                  EspCmd "AT+CWLAP"
 317+ 8D1C 21 26 8D    >    ld hl, .txtB
 317+ 8D1F 1E 0A       >    ld e, (.txtE - .txtB)
 317+ 8D21 CD BC 8E    >    call Wifi.espSend
 317+ 8D24 18 0A       >    jr .txtE
 317+ 8D26             >.txtB
 317+ 8D26 41 54 2B 43 >    db "AT+CWLAP"
 317+ 8D2A 57 4C 41 50 >
 317+ 8D2E 0D 0A       >    db 13, 10
 317+ 8D30             >.txtE
 318+ 8D30                  ; fall through to loadList
 319+ 8D30
 320+ 8D30              loadList:
 321+ 8D30                  ; Primera espera con timeout largo (el scan puede tardar 5-15 segundos)
 322+ 8D30                  IFDEF NEXT
 323+ 8D30 ~                ld b, 60                     ; Next: CPU más rápida, más intentos
 324+ 8D30                  ELSE
 325+ 8D30 06 14            ld b, 20                     ; UNO/divMMC: valor original
 326+ 8D32                  ENDIF
 327+ 8D32              .waitFirstResponse
 328+ 8D32 C5               push bc
 329+ 8D33 CD F6 B3         call Uart.readTimeoutLong
 330+ 8D36 C1               pop bc
 331+ 8D37 38 05            jr c, .gotFirstChar
 332+ 8D39 10 F7            djnz .waitFirstResponse
 333+ 8D3B C3 E5 8D         jp .scan_timeout             ; Sin respuesta después de timeout
 334+ 8D3E
 335+ 8D3E              .gotFirstChar
 336+ 8D3E FE 2B            cp '+'
 336+ 8D40 28 20          jr z, .plusStart
 337+ 8D42 FE 4F            cp 'O'
 337+ 8D44 28 41          jr z, .okStart
 338+ 8D46 FE 45            cp 'E'
 338+ 8D48 CA B6 8D       jp z, .errStart
 339+ 8D4B 18 00            jr .continueLoad
 340+ 8D4D
 341+ 8D4D              .continueLoad
 342+ 8D4D CD E6 B3         call Uart.readTimeoutMedium
 343+ 8D50 D2 E5 8D         jp nc, .scan_timeout
 344+ 8D53
 345+ 8D53 FE 2B            cp '+'
 345+ 8D55 28 0B          jr z, .plusStart
 346+ 8D57 FE 4F            cp 'O'
 346+ 8D59 28 2C          jr z, .okStart
 347+ 8D5B FE 45            cp 'E'
 347+ 8D5D CA B6 8D       jp z, .errStart
 348+ 8D60 18 EB            jr .continueLoad
 349+ 8D62
 350+ 8D62              .plusStart
 351+ 8D62 CD D6 B3         call Uart.readTimeout
 351+ 8D65 D2 E5 8D       jp nc, .scan_timeout
 352+ 8D68 FE 43            cp 'C'
 352+ 8D6A 20 C4          jr nz, loadList
 353+ 8D6C CD D6 B3         call Uart.readTimeout
 353+ 8D6F D2 E5 8D       jp nc, .scan_timeout
 354+ 8D72 FE 57            cp 'W'
 354+ 8D74 20 BA          jr nz, loadList
 355+ 8D76 CD D6 B3         call Uart.readTimeout
 355+ 8D79 D2 E5 8D       jp nc, .scan_timeout
 356+ 8D7C FE 4C            cp 'L'
 356+ 8D7E 20 B0          jr nz, loadList
 357+ 8D80 3E 01            ld a, 1
 358+ 8D82 32 5A 92         ld (seen_cwlap), a
 359+ 8D85 18 78            jr .loadAp
 360+ 8D87
 361+ 8D87              .okStart
 362+ 8D87 CD D6 B3         call Uart.readTimeout
 362+ 8D8A D2 E5 8D       jp nc, .scan_timeout
 363+ 8D8D FE 4B            cp 'K'
 363+ 8D8F 20 9F          jr nz, loadList
 364+ 8D91 CD D6 B3         call Uart.readTimeout
 364+ 8D94 D2 E5 8D       jp nc, .scan_timeout
 365+ 8D97 FE 0D            cp 13
 365+ 8D99 20 95          jr nz, loadList
 366+ 8D9B
 367+ 8D9B                  ; Some firmwares (or prior commands) may leave a stray OK in the RX stream.
 368+ 8D9B                  ; Ignore the first OK if we have not seen any +CWLAP lines yet.
 369+ 8D9B 3A 5A 92         ld a, (seen_cwlap)
 370+ 8D9E A7               and a
 371+ 8D9F 20 0D            jr nz, .ok_return
 372+ 8DA1
 373+ 8DA1 3A 5B 92         ld a, (ok_ignored)
 374+ 8DA4 A7               and a
 375+ 8DA5 20 07            jr nz, .ok_return
 376+ 8DA7 3E 01            ld a, 1
 377+ 8DA9 32 5B 92         ld (ok_ignored), a
 378+ 8DAC 18 82            jr loadList
 379+ 8DAE
 380+ 8DAE              .ok_return
 381+ 8DAE CD B8 91         call initDisplayIndices     ; Inicializar índices para mostrar
 382+ 8DB1 B7               or a
 383+ 8DB2 CD 5F 8A         call uartUnlock
 384+ 8DB5 C9               ret
 385+ 8DB6
 386+ 8DB6              .errStart
 387+ 8DB6 CD D6 B3         call Uart.readTimeout
 387+ 8DB9 D2 E5 8D       jp nc, .scan_timeout
 388+ 8DBC FE 52            cp 'R'
 388+ 8DBE C2 30 8D       jp nz, loadList
 389+ 8DC1 CD D6 B3         call Uart.readTimeout
 389+ 8DC4 D2 E5 8D       jp nc, .scan_timeout
 390+ 8DC7 FE 52            cp 'R'
 390+ 8DC9 C2 30 8D       jp nz, loadList
 391+ 8DCC CD D6 B3         call Uart.readTimeout
 391+ 8DCF D2 E5 8D       jp nc, .scan_timeout
 392+ 8DD2 FE 4F            cp 'O'
 392+ 8DD4 C2 30 8D       jp nz, loadList
 393+ 8DD7 CD D6 B3         call Uart.readTimeout
 393+ 8DDA D2 E5 8D       jp nc, .scan_timeout
 394+ 8DDD FE 52            cp 'R'
 394+ 8DDF C2 30 8D       jp nz, loadList
 395+ 8DE2 C3 6D 8C         jp init.err
 396+ 8DE5
 397+ 8DE5              .scan_timeout
 398+ 8DE5 21 F0 8D         ld hl, .timeout_msg
 399+ 8DE8 CD 3B 80         call Display.putStrLog
 400+ 8DEB CD 5F 8A         call uartUnlock
 401+ 8DEE 37               scf
 402+ 8DEF C9               ret
 403+ 8DF0 0D 53 63 61  .timeout_msg db 13, "Scan timeout!", 0
 403+ 8DF4 6E 20 74 69
 403+ 8DF8 6D 65 6F 75
 403+ 8DFC 74 21 00
 404+ 8DFF
 405+ 8DFF              .loadAp
 406+ 8DFF 3A 59 92         ld a, (networks_count)
 407+ 8E02 FE 14            cp MAX_NETWORKS
 408+ 8E04 D2 30 8D         jp nc, loadList
 409+ 8E07
 410+ 8E07              .skipToEcn
 411+ 8E07 CD D6 B3         call Uart.readTimeout
 411+ 8E0A D2 E5 8D       jp nc, .scan_timeout
 412+ 8E0D FE 28            cp '('
 412+ 8E0F 20 F6          jr nz, .skipToEcn
 413+ 8E11
 414+ 8E11 CD D6 B3         call Uart.readTimeout
 414+ 8E14 D2 E5 8D       jp nc, .scan_timeout
 415+ 8E17 D6 30            sub '0'
 416+ 8E19 2A 57 92         ld hl, (rssi_ptr)
 417+ 8E1C 77               ld (hl), a
 418+ 8E1D
 419+ 8E1D              .findQuote
 420+ 8E1D CD D6 B3         call Uart.readTimeout
 420+ 8E20 D2 E5 8D       jp nc, .scan_timeout
 421+ 8E23 FE 22            cp '"'
 421+ 8E25 20 F6          jr nz, .findQuote
 422+ 8E27
 423+ 8E27 0E 00            ld c, 0
 424+ 8E29
 425+ 8E29              .loadName
 426+ 8E29 CD D6 B3         call Uart.readTimeout
 426+ 8E2C D2 E5 8D       jp nc, .scan_timeout
 427+ 8E2F FE 22            cp '"'
 427+ 8E31 28 36          jr z, .loadedName
 428+ 8E33
 429+ 8E33 47               ld b, a
 430+ 8E34 79               ld a, c
 431+ 8E35 FE 20            cp MAX_SSID_LEN
 432+ 8E37 78               ld a, b
 433+ 8E38 30 EF            jr nc, .loadName
 434+ 8E3A
 435+ 8E3A 2A 55 92         ld hl, (buff_ptr)
 436+ 8E3D D5               push de
 437+ 8E3E 11 94 C2         ld de, BUFFER_END
 438+ 8E41 B7               or a
 439+ 8E42 ED 52            sbc hl, de
 440+ 8E44 19               add hl, de
 441+ 8E45 D1               pop de
 442+ 8E46 30 08            jr nc, .bufferFull
 443+ 8E48
 444+ 8E48 77               ld (hl), a
 445+ 8E49 23               inc hl
 446+ 8E4A 22 55 92         ld (buff_ptr), hl
 447+ 8E4D 0C               inc c
 448+ 8E4E 18 D9            jr .loadName
 449+ 8E50
 450+ 8E50              .bufferFull
 451+ 8E50 21 5B 8E         ld hl, .full_msg
 452+ 8E53 CD 3B 80         call Display.putStrLog
 453+ 8E56 B7               or a
 454+ 8E57 CD 5F 8A         call uartUnlock
 455+ 8E5A C9               ret
 456+ 8E5B 0D 42 75 66  .full_msg db 13, "Buffer full!", 0
 456+ 8E5F 66 65 72 20
 456+ 8E63 66 75 6C 6C
 456+ 8E67 21 00
 457+ 8E69
 458+ 8E69              .loadedName
 459+ 8E69 AF               xor a
 460+ 8E6A 2A 55 92         ld hl, (buff_ptr)
 460+ 8E6D 77             ld (hl), a
 460+ 8E6E 23             inc hl
 460+ 8E6F 22 55 92       ld (buff_ptr), hl
 461+ 8E72
 462+ 8E72              .findRssi
 463+ 8E72 CD D6 B3         call Uart.readTimeout
 463+ 8E75 D2 E5 8D       jp nc, .scan_timeout
 464+ 8E78 FE 2C            cp ','
 464+ 8E7A 20 F6          jr nz, .findRssi
 465+ 8E7C
 466+ 8E7C CD D6 B3         call Uart.readTimeout
 466+ 8E7F D2 E5 8D       jp nc, .scan_timeout
 467+ 8E82 FE 2D            cp '-'
 467+ 8E84 20 1E          jr nz, .skipRssi
 468+ 8E86
 469+ 8E86 11 00 00         ld de, 0
 470+ 8E89              .readRssiDigit
 471+ 8E89 CD D6 B3         call Uart.readTimeout
 471+ 8E8C D2 E5 8D       jp nc, .scan_timeout
 472+ 8E8F FE 30            cp '0'
 472+ 8E91 38 13          jr c, .rssiDone
 473+ 8E93 FE 3A            cp '9'+1
 473+ 8E95 30 0F          jr nc, .rssiDone
 474+ 8E97
 475+ 8E97 D6 30            sub '0'
 476+ 8E99 47               ld b, a
 477+ 8E9A 7B               ld a, e
 478+ 8E9B 87               add a, a
 479+ 8E9C 5F               ld e, a
 480+ 8E9D 87               add a, a
 481+ 8E9E 87               add a, a
 482+ 8E9F 83               add a, e
 483+ 8EA0 80               add a, b
 484+ 8EA1 5F               ld e, a
 485+ 8EA2 18 E5            jr .readRssiDigit
 486+ 8EA4
 487+ 8EA4              .skipRssi
 488+ 8EA4 1E 63            ld e, 99
 489+ 8EA6              .rssiDone
 490+ 8EA6 2A 57 92         ld hl, (rssi_ptr)
 491+ 8EA9 7E               ld a, (hl)
 492+ 8EAA A7               and a
 493+ 8EAB 7B               ld a, e
 494+ 8EAC 20 02            jr nz, .notOpen
 495+ 8EAE F6 80            or #80
 496+ 8EB0              .notOpen
 497+ 8EB0 77               ld (hl), a
 498+ 8EB1 23               inc hl
 499+ 8EB2 22 57 92         ld (rssi_ptr), hl
 500+ 8EB5
 501+ 8EB5 21 59 92         ld hl, networks_count
 501+ 8EB8 34             inc (hl)
 502+ 8EB9 C3 30 8D         jp loadList
 503+ 8EBC
 504+ 8EBC              espSend:
 505+ 8EBC 7E               ld a, (hl)
 506+ 8EBD E5 D5            push hl, de
 507+ 8EBF CD A7 B3         call Uart.write
 508+ 8EC2 D1 E1            pop de, hl
 509+ 8EC4 23               inc hl
 510+ 8EC5 1D               dec e
 511+ 8EC6 20 F4            jr nz, espSend
 512+ 8EC8 C9               ret
 513+ 8EC9
 514+ 8EC9              espSendZ:
 515+ 8EC9                  ; Safe TX log (line-based) for debugging.
 516+ 8EC9                  ; Masks AT+CWJAP to avoid printing passwords.
 517+ 8EC9 3A 60 92         ld a, (debug_log)
 518+ 8ECC A7               and a
 519+ 8ECD 28 05            jr z, .sendLoop
 520+ 8ECF E5               push hl
 521+ 8ED0 CD DF 8E         call logTxMasked
 522+ 8ED3 E1               pop hl
 523+ 8ED4              .sendLoop
 524+ 8ED4 7E               ld a, (hl)
 524+ 8ED5 A7             and a
 524+ 8ED6 C8             ret z
 525+ 8ED7 E5               push hl
 526+ 8ED8 CD A7 B3         call Uart.write
 527+ 8EDB E1               pop hl
 528+ 8EDC 23               inc hl
 529+ 8EDD 18 F5            jr .sendLoop
 530+ 8EDF
 531+ 8EDF              ; ------------------------------------------------------------
 532+ 8EDF              ; logTxMasked
 533+ 8EDF              ;   HL -> Z-terminated command string (usually includes CR/LF)
 534+ 8EDF              ;   Logs to on-screen UART log as:
 535+ 8EDF              ;       >> <command>
 536+ 8EDF              ;   but masks AT+CWJAP payload.
 537+ 8EDF              ; ------------------------------------------------------------
 538+ 8EDF              logTxMasked:
 539+ 8EDF E5               push hl
 540+ 8EE0 21 18 8F         ld hl, dbg_prefix
 541+ 8EE3 CD 3B 80         call Display.putStrLog
 542+ 8EE6 E1               pop hl
 543+ 8EE7
 544+ 8EE7                  ; Check prefix "AT+CWJAP" (8 chars)
 545+ 8EE7 E5               push hl
 546+ 8EE8 11 1C 8F         ld de, dbg_cwjap_prefix
 547+ 8EEB 06 08            ld b, 8
 548+ 8EED              .chk
 549+ 8EED 7E               ld a, (hl)
 550+ 8EEE 4F               ld c, a
 551+ 8EEF 1A               ld a, (de)
 552+ 8EF0 B9               cp c
 553+ 8EF1 20 21            jr nz, .notCw
 554+ 8EF3 23               inc hl
 555+ 8EF4 13               inc de
 556+ 8EF5 10 F6            djnz .chk
 557+ 8EF7 E1               pop hl
 558+ 8EF8                  ; If this is a query (AT+CWJAP? / _CUR? / _DEF?), suppress TX log to avoid spam.
 559+ 8EF8 E5               push hl
 560+ 8EF9 06 10            ld b, 16
 561+ 8EFB              .qscan
 562+ 8EFB 7E               ld a, (hl)
 563+ 8EFC FE 3F            cp '?'
 563+ 8EFE 28 12          jr z, .skipLog
 564+ 8F00 FE 3D            cp '='
 564+ 8F02 28 07          jr z, .doMask
 565+ 8F04 FE 0D            cp 13
 565+ 8F06 28 03          jr z, .doMask
 566+ 8F08 23               inc hl
 567+ 8F09 10 F0            djnz .qscan
 568+ 8F0B              .doMask
 569+ 8F0B E1               pop hl
 570+ 8F0C 21 24 8F         ld hl, dbg_tx_cwjap
 571+ 8F0F C3 3B 80         jp Display.putStrLog
 572+ 8F12              .skipLog
 573+ 8F12 E1               pop hl
 574+ 8F13 C9               ret
 575+ 8F14              .notCw
 576+ 8F14 E1               pop hl
 577+ 8F15 C3 3B 80         jp Display.putStrLog
 578+ 8F18
 579+ 8F18 3E 3E 20 00  dbg_prefix       db ">> ", 0
 580+ 8F1C 41 54 2B 43  dbg_cwjap_prefix db "AT+CWJAP"
 580+ 8F20 57 4A 41 50
 581+ 8F24 41 54 2B 43  dbg_tx_cwjap     db "AT+CWJAP=<hidden>", 13, 10, 0
 581+ 8F28 57 4A 41 50
 581+ 8F2C 3D 3C 68 69
 581+ 8F30 64 64 65 6E
 581+ 8F34 3E 0D 0A 00
 582+ 8F38 3C 3C 20 4F  dbg_rx_ok       db "<< OK", 13, 10, 0
 582+ 8F3C 4B 0D 0A 00
 583+ 8F40 3C 3C 20 45  dbg_rx_error    db "<< ERROR", 13, 10, 0
 583+ 8F44 52 52 4F 52
 583+ 8F48 0D 0A 00
 584+ 8F4B 3C 3C 20 46  dbg_rx_fail     db "<< FAIL", 13, 10, 0
 584+ 8F4F 41 49 4C 0D
 584+ 8F53 0A 00
 585+ 8F55
 586+ 8F55
 587+ 8F55              ; checkOkErr - Usa timeout normal
 588+ 8F55              checkOkErr:
 589+ 8F55 AF               xor a
 590+ 8F56 32 A7 90         ld (use_long_timeout), a
 591+ 8F59 32 AA 90         ld (last_error), a          ; Sin error específico
 592+ 8F5C 18 09            jr checkOkErrCommon
 593+ 8F5E
 594+ 8F5E              ; checkOkErrLong - Usa timeout largo para AT+CWJAP
 595+ 8F5E              checkOkErrLong:
 596+ 8F5E 3E 01            ld a, 1
 597+ 8F60 32 A7 90         ld (use_long_timeout), a
 598+ 8F63 AF               xor a
 599+ 8F64 32 AA 90         ld (last_error), a          ; Sin error específico
 600+ 8F67                  ; Fall through
 601+ 8F67
 602+ 8F67              checkOkErrCommon:
 603+ 8F67 CD 59 8A         call uartLock
 604+ 8F6A                  ; Límite de bytes para evitar bucle infinito con tráfico de red
 605+ 8F6A 21 D0 07         ld hl, 2000                 ; Máximo 2000 bytes antes de rendirse
 606+ 8F6D 22 A8 90         ld (byte_limit), hl
 607+ 8F70
 608+ 8F70              .mainLoop
 609+ 8F70                  ; Verificar límite
 610+ 8F70 2A A8 90         ld hl, (byte_limit)
 611+ 8F73 7C               ld a, h
 612+ 8F74 B5               or l
 613+ 8F75 28 20            jr z, .timeout              ; Límite alcanzado
 614+ 8F77 2B               dec hl
 615+ 8F78 22 A8 90         ld (byte_limit), hl
 616+ 8F7B
 617+ 8F7B CD 9D 90         call .doRead
 618+ 8F7E D2 97 8F         jp nc, .timeout
 619+ 8F81 FE 4F            cp 'O'
 619+ 8F83 CA 9C 8F       jp z, .okStart
 620+ 8F86 FE 45            cp 'E'
 620+ 8F88 CA C8 8F       jp z, .errStart
 621+ 8F8B FE 46            cp 'F'
 621+ 8F8D CA 0A 90       jp z, .failStart
 622+ 8F90 FE 2B            cp '+'
 622+ 8F92 CA 41 90       jp z, .plusStart   ; Detectar +CWJAP:X
 623+ 8F95                  ; Ignorar mensajes asíncronos
 624+ 8F95 18 D9            jr .mainLoop
 625+ 8F97
 626+ 8F97              .timeout
 627+ 8F97 CD 5F 8A         call uartUnlock
 628+ 8F9A 37               scf
 629+ 8F9B C9               ret
 630+ 8F9C
 631+ 8F9C              .okStart
 632+ 8F9C CD 9D 90         call .doRead
 632+ 8F9F D2 97 8F       jp nc, .timeout
 633+ 8FA2 FE 4B            cp 'K'
 633+ 8FA4 C2 70 8F       jp nz, .mainLoop
 634+ 8FA7 CD 9D 90         call .doRead
 634+ 8FAA D2 97 8F       jp nc, .timeout
 635+ 8FAD FE 0D            cp 13
 635+ 8FAF C2 70 8F       jp nz, .mainLoop
 636+ 8FB2 CD 94 90         call .flushToLF
 637+ 8FB5 3A 60 92         ld a, (debug_log)
 638+ 8FB8 A7               and a
 639+ 8FB9 28 08            jr z, .ok_no_log
 640+ 8FBB E5               push hl
 641+ 8FBC 21 38 8F         ld hl, dbg_rx_ok
 642+ 8FBF CD 3B 80         call Display.putStrLog
 643+ 8FC2 E1               pop hl
 644+ 8FC3              .ok_no_log
 645+ 8FC3 B7               or a
 646+ 8FC4 CD 5F 8A         call uartUnlock
 647+ 8FC7 C9               ret
 648+ 8FC8              .errStart
 649+ 8FC8 CD 9D 90         call .doRead
 649+ 8FCB D2 97 8F       jp nc, .timeout
 650+ 8FCE FE 52            cp 'R'
 650+ 8FD0 C2 70 8F       jp nz, .mainLoop
 651+ 8FD3 CD 9D 90         call .doRead
 651+ 8FD6 D2 97 8F       jp nc, .timeout
 652+ 8FD9 FE 52            cp 'R'
 652+ 8FDB C2 70 8F       jp nz, .mainLoop
 653+ 8FDE CD 9D 90         call .doRead
 653+ 8FE1 D2 97 8F       jp nc, .timeout
 654+ 8FE4 FE 4F            cp 'O'
 654+ 8FE6 C2 70 8F       jp nz, .mainLoop
 655+ 8FE9 CD 9D 90         call .doRead
 655+ 8FEC D2 97 8F       jp nc, .timeout
 656+ 8FEF FE 52            cp 'R'
 656+ 8FF1 C2 70 8F       jp nz, .mainLoop
 657+ 8FF4 CD 94 90         call .flushToLF
 658+ 8FF7 3A 60 92         ld a, (debug_log)
 659+ 8FFA A7               and a
 660+ 8FFB 28 08            jr z, .err_no_log
 661+ 8FFD E5               push hl
 662+ 8FFE 21 40 8F         ld hl, dbg_rx_error
 663+ 9001 CD 3B 80         call Display.putStrLog
 664+ 9004 E1               pop hl
 665+ 9005              .err_no_log
 666+ 9005 CD 5F 8A         call uartUnlock
 667+ 9008 37               scf
 668+ 9009 C9               ret
 669+ 900A              .failStart
 670+ 900A CD 9D 90         call .doRead
 670+ 900D D2 97 8F       jp nc, .timeout
 671+ 9010 FE 41            cp 'A'
 671+ 9012 C2 70 8F       jp nz, .mainLoop
 672+ 9015 CD 9D 90         call .doRead
 672+ 9018 D2 97 8F       jp nc, .timeout
 673+ 901B FE 49            cp 'I'
 673+ 901D C2 70 8F       jp nz, .mainLoop
 674+ 9020 CD 9D 90         call .doRead
 674+ 9023 D2 97 8F       jp nc, .timeout
 675+ 9026 FE 4C            cp 'L'
 675+ 9028 C2 70 8F       jp nz, .mainLoop
 676+ 902B CD 94 90         call .flushToLF
 677+ 902E 3A 60 92         ld a, (debug_log)
 678+ 9031 A7               and a
 679+ 9032 28 08            jr z, .fail_no_log
 680+ 9034 E5               push hl
 681+ 9035 21 4B 8F         ld hl, dbg_rx_fail
 682+ 9038 CD 3B 80         call Display.putStrLog
 683+ 903B E1               pop hl
 684+ 903C              .fail_no_log
 685+ 903C CD 5F 8A         call uartUnlock
 686+ 903F 37               scf
 687+ 9040 C9               ret
 688+ 9041
 689+ 9041              ; Detectar +CWJAP:X para códigos de error
 690+ 9041              .plusStart
 691+ 9041 CD 9D 90         call .doRead
 691+ 9044 D2 97 8F       jp nc, .timeout
 692+ 9047 FE 43            cp 'C'
 692+ 9049 C2 70 8F       jp nz, .mainLoop   ; No es +CWJAP
 693+ 904C CD 9D 90         call .doRead
 693+ 904F D2 97 8F       jp nc, .timeout
 694+ 9052 FE 57            cp 'W'
 694+ 9054 C2 70 8F       jp nz, .mainLoop
 695+ 9057 CD 9D 90         call .doRead
 695+ 905A D2 97 8F       jp nc, .timeout
 696+ 905D FE 4A            cp 'J'
 696+ 905F C2 70 8F       jp nz, .mainLoop
 697+ 9062 CD 9D 90         call .doRead
 697+ 9065 D2 97 8F       jp nc, .timeout
 698+ 9068 FE 41            cp 'A'
 698+ 906A C2 70 8F       jp nz, .mainLoop
 699+ 906D CD 9D 90         call .doRead
 699+ 9070 D2 97 8F       jp nc, .timeout
 700+ 9073 FE 50            cp 'P'
 700+ 9075 C2 70 8F       jp nz, .mainLoop
 701+ 9078 CD 9D 90         call .doRead
 701+ 907B D2 97 8F       jp nc, .timeout
 702+ 907E FE 3A            cp ':'
 702+ 9080 C2 70 8F       jp nz, .mainLoop
 703+ 9083                  ; Leer código de error (1-4)
 704+ 9083 CD 9D 90         call .doRead
 704+ 9086 D2 97 8F       jp nc, .timeout
 705+ 9089 D6 30            sub '0'                     ; Convertir ASCII a número
 706+ 908B 32 AA 90         ld (last_error), a          ; Guardar código de error
 707+ 908E CD 94 90         call .flushToLF
 708+ 9091 C3 70 8F         jp .mainLoop                ; Seguir esperando ERROR/FAIL
 709+ 9094
 710+ 9094              .flushToLF
 711+ 9094 CD 9D 90         call .doRead
 712+ 9097 D0               ret nc
 713+ 9098 FE 0A            cp 10
 713+ 909A 20 F8          jr nz, .flushToLF
 714+ 909C C9               ret
 715+ 909D
 716+ 909D              ; Subrutina que llama al read apropiado según use_long_timeout
 717+ 909D              .doRead
 718+ 909D 3A A7 90         ld a, (use_long_timeout)
 719+ 90A0 A7               and a
 720+ 90A1 CA D6 B3         jp z, Uart.readTimeout
 721+ 90A4 C3 F6 B3         jp Uart.readTimeoutLong
 722+ 90A7
 723+ 90A7 00           use_long_timeout db 0
 724+ 90A8 00 00        byte_limit       dw 0
 725+ 90AA 00           last_error       db 0           ; Código de error CWJAP (0=ninguno, 1-4=error)
 726+ 90AB
 727+ 90AB              ; ============================================
 728+ 90AB              ; getIP - Obtiene la IP actual del ESP
 729+ 90AB              ; Resultado en ip_buffer
 730+ 90AB              ; CF=0 si éxito, CF=1 si error
 731+ 90AB              ; ============================================
 732+ 90AB              getIP:
 733+ 90AB CD 59 8A         call uartLock
 734+ 90AE                  ; Limpiar buffer primero
 735+ 90AE 21 96 92         ld hl, ip_buffer
 736+ 90B1 06 10            ld b, 16
 737+ 90B3 AF               xor a
 738+ 90B4              .clear
 739+ 90B4 77               ld (hl), a
 740+ 90B5 23               inc hl
 741+ 90B6 10 FC            djnz .clear
 742+ 90B8
 743+ 90B8 01 F4 01         ld bc, 500                  ; Límite de bytes
 744+ 90BB                  EspCmd "AT+CIFSR"
 744+ 90BB 21 C5 90    >    ld hl, .txtB
 744+ 90BE 1E 0A       >    ld e, (.txtE - .txtB)
 744+ 90C0 CD BC 8E    >    call Wifi.espSend
 744+ 90C3 18 0A       >    jr .txtE
 744+ 90C5             >.txtB
 744+ 90C5 41 54 2B 43 >    db "AT+CIFSR"
 744+ 90C9 49 46 53 52 >
 744+ 90CD 0D 0A       >    db 13, 10
 744+ 90CF             >.txtE
 745+ 90CF              .loop
 746+ 90CF 0B               dec bc
 747+ 90D0 78               ld a, b
 748+ 90D1 B1               or c
 749+ 90D2 28 4C            jr z, .timeout              ; Límite alcanzado
 750+ 90D4 CD D6 B3         call Uart.readTimeout
 751+ 90D7 D2 20 91         jp nc, .timeout
 752+ 90DA FE 50            cp 'P'
 752+ 90DC 28 02          jr z, .infoStart
 753+ 90DE 18 EF            jr .loop
 754+ 90E0              .infoStart
 755+ 90E0 CD D6 B3         call Uart.readTimeout
 755+ 90E3 D2 20 91       jp nc, .timeout
 756+ 90E6 FE 2C            cp ','
 756+ 90E8 20 E5          jr nz, .loop
 757+ 90EA CD D6 B3         call Uart.readTimeout
 757+ 90ED D2 20 91       jp nc, .timeout
 758+ 90F0 FE 22            cp '"'
 758+ 90F2 20 DB          jr nz, .loop
 759+ 90F4 21 96 92         ld hl, ip_buffer
 760+ 90F7 06 10            ld b, 16                    ; Límite de caracteres IP
 761+ 90F9              .copyIpLoop
 762+ 90F9 E5               push hl
 763+ 90FA C5               push bc
 764+ 90FB CD D6 B3         call Uart.readTimeout
 765+ 90FE C1               pop bc
 766+ 90FF E1               pop hl
 767+ 9100 D2 20 91         jp nc, .timeout
 768+ 9103 FE 22            cp '"'
 768+ 9105 28 04          jr z, .finish
 769+ 9107 77               ld (hl), a
 770+ 9108 23               inc hl
 771+ 9109 10 EE            djnz .copyIpLoop
 772+ 910B                  ; IP demasiado larga, truncar
 773+ 910B              .finish
 774+ 910B AF               xor a
 775+ 910C 77               ld (hl), a
 776+ 910D                  ; Verificar que hay algo válido
 777+ 910D 3A 96 92         ld a, (ip_buffer)
 778+ 9110 FE 30            cp '0'
 779+ 9112 20 07            jr nz, .ok
 780+ 9114 3A 97 92         ld a, (ip_buffer + 1)
 781+ 9117 FE 2E            cp '.'
 782+ 9119 28 05            jr z, .noIP
 783+ 911B              .ok
 784+ 911B B7               or a                    ; CF = 0
 785+ 911C CD 5F 8A         call uartUnlock
 786+ 911F C9               ret
 787+ 9120              .timeout
 788+ 9120              .noIP
 789+ 9120 CD 5F 8A         call uartUnlock
 790+ 9123 37               scf                     ; CF = 1
 791+ 9124 C9               ret
 792+ 9125
 793+ 9125              ; ============================================
 794+ 9125              ; ensureCommandMode
 795+ 9125              ;   Best-effort attempt to ensure the ESP is in AT command mode.
 796+ 9125              ;   1) Send AT and expect OK.
 797+ 9125              ;   2) If not OK, send escape sequence +++ with guard times and retry AT.
 798+ 9125              ;
 799+ 9125              ;   Returns: CF=0 if OK received, CF=1 otherwise.
 800+ 9125              ;
 801+ 9125              ;   Notes:
 802+ 9125              ;   - Mutes UART byte-log while sending raw +++/CRLF to avoid polluting the UART log buffer.
 803+ 9125              ; ============================================
 804+ 9125              ensureCommandMode:
 805+ 9125                  ; Fast path
 806+ 9125 CD 8A 8B         call flushInput
 807+ 9128                  EspCmd "AT"
 807+ 9128 21 32 91    >    ld hl, .txtB
 807+ 912B 1E 04       >    ld e, (.txtE - .txtB)
 807+ 912D CD BC 8E    >    call Wifi.espSend
 807+ 9130 18 04       >    jr .txtE
 807+ 9132             >.txtB
 807+ 9132 41 54       >    db "AT"
 807+ 9134 0D 0A       >    db 13, 10
 807+ 9136             >.txtE
 808+ 9136 CD 55 8F         call checkOkErr
 809+ 9139 D0               ret nc
 810+ 913A
 811+ 913A                  ; Slow path: try to exit a possible transparent/pass-through mode
 812+ 913A CD 59 8A         call uartLock
 813+ 913D
 814+ 913D                  ; Optional hint in the log (only if UART log is enabled)
 815+ 913D 3A 7C B4         ld a, (Uart.log_enabled)
 816+ 9140 A7               and a
 817+ 9141 28 06            jr z, .noLog
 818+ 9143 21 89 91         ld hl, .msg_escape
 819+ 9146 CD 3B 80         call Display.putStrLog
 820+ 9149              .noLog
 821+ 9149
 822+ 9149                  ; Guard time before +++ (about 1 second)
 823+ 9149 06 32            ld b, 50
 824+ 914B              .preGuard
 825+ 914B 76               halt
 826+ 914C 10 FD            djnz .preGuard
 827+ 914E
 828+ 914E                  ; Mute UART byte log during raw escape transmission
 829+ 914E 3A 7C B4         ld a, (Uart.log_enabled)
 830+ 9151 F5               push af
 831+ 9152 AF               xor a
 832+ 9153 32 7C B4         ld (Uart.log_enabled), a
 833+ 9156
 834+ 9156                  ; IMPORTANT: per ESP-AT docs, the escape sequence to quit passthrough mode
 835+ 9156                  ; is exactly three '+' characters with *no* CR/LF appended.
 836+ 9156                  ; Any extra characters around it may be forwarded as passthrough data and
 837+ 9156                  ; can also prevent the escape sequence from being recognized.
 838+ 9156 3E 2B            ld a, '+'
 839+ 9158 CD 60 BE         call UartImpl.write
 840+ 915B 3E 2B            ld a, '+'
 841+ 915D CD 60 BE         call UartImpl.write
 842+ 9160 3E 2B            ld a, '+'
 843+ 9162 CD 60 BE         call UartImpl.write
 844+ 9165
 845+ 9165 F1               pop af
 846+ 9166 32 7C B4         ld (Uart.log_enabled), a
 847+ 9169 CD 71 B4         call Uart.logReset
 848+ 916C
 849+ 916C                  ; Guard time after +++ (about 1 second)
 850+ 916C 06 32            ld b, 50
 851+ 916E              .postGuard
 852+ 916E 76               halt
 853+ 916F 10 FD            djnz .postGuard
 854+ 9171
 855+ 9171 CD 5F 8A         call uartUnlock
 856+ 9174
 857+ 9174                  ; Clear any response noise and retry AT
 858+ 9174 CD 8A 8B         call flushInput
 859+ 9177                  EspCmd "AT"
 859+ 9177 21 81 91    >    ld hl, .txtB
 859+ 917A 1E 04       >    ld e, (.txtE - .txtB)
 859+ 917C CD BC 8E    >    call Wifi.espSend
 859+ 917F 18 04       >    jr .txtE
 859+ 9181             >.txtB
 859+ 9181 41 54       >    db "AT"
 859+ 9183 0D 0A       >    db 13, 10
 859+ 9185             >.txtE
 860+ 9185 CD 55 8F         call checkOkErr
 861+ 9188 C9               ret
 862+ 9189
 863+ 9189 0D 2D 2D 20  .msg_escape db 13, "-- Escape +++ (trying to exit pass-through)", 13, 10, 0
 863+ 918D 45 73 63 61
 863+ 9191 70 65 20 2B
 863+ 9195 2B 2B 20 28
 863+ 9199 74 72 79 69
 863+ 919D 6E 67 20 74
 863+ 91A1 6F 20 65 78
 863+ 91A5 69 74 20 70
 863+ 91A9 61 73 73 2D
 863+ 91AD 74 68 72 6F
 863+ 91B1 75 67 68 29
 863+ 91B5 0D 0A 00
 864+ 91B8
 865+ 91B8              ; ============================================
 866+ 91B8              ; initDisplayIndices - Inicializa índices a 0,1,2,...,n-1
 867+ 91B8              ; Llamar después de cada escaneo
 868+ 91B8              ; ============================================
 869+ 91B8              initDisplayIndices:
 870+ 91B8 21 40 92         ld hl, display_indices
 871+ 91BB AF               xor a
 872+ 91BC              .initLoop
 873+ 91BC 77               ld (hl), a
 874+ 91BD 23               inc hl
 875+ 91BE 3C               inc a
 876+ 91BF FE 14            cp MAX_NETWORKS
 877+ 91C1 20 F9            jr nz, .initLoop
 878+ 91C3 AF               xor a
 879+ 91C4 32 54 92         ld (is_sorted), a
 880+ 91C7 C9               ret
 881+ 91C8
 882+ 91C8              ; ============================================
 883+ 91C8              ; sortNetworks - Toggle ordenación por señal
 884+ 91C8              ; Si no está ordenado: ordena los índices por RSSI
 885+ 91C8              ; Si está ordenado: restaura orden original
 886+ 91C8              ; ============================================
 887+ 91C8              sortNetworks:
 888+ 91C8 3A 54 92         ld a, (is_sorted)
 889+ 91CB A7               and a
 890+ 91CC 20 62            jr nz, .unsort
 891+ 91CE
 892+ 91CE                  ; --- Ordenar por señal (bubble sort sobre índices) ---
 893+ 91CE 3A 59 92         ld a, (networks_count)
 894+ 91D1 FE 02            cp 2
 895+ 91D3 D8               ret c                       ; Si hay 0 o 1 red, no ordenar
 896+ 91D4
 897+ 91D4 3D               dec a
 898+ 91D5 32 3D 92         ld (sort_passes), a
 899+ 91D8
 900+ 91D8              .outerLoop
 901+ 91D8 3A 59 92         ld a, (networks_count)
 902+ 91DB 3D               dec a
 903+ 91DC 32 3E 92         ld (sort_compares), a
 904+ 91DF
 905+ 91DF AF               xor a
 906+ 91E0 32 3F 92         ld (sort_index), a
 907+ 91E3
 908+ 91E3              .innerLoop
 909+ 91E3                  ; Obtener display_indices[i] y display_indices[i+1]
 910+ 91E3 3A 3F 92         ld a, (sort_index)
 911+ 91E6 21 40 92         ld hl, display_indices
 912+ 91E9 5F               ld e, a
 913+ 91EA 16 00            ld d, 0
 914+ 91EC 19               add hl, de                  ; HL = &display_indices[i]
 915+ 91ED
 916+ 91ED 46               ld b, (hl)                  ; B = display_indices[i] (índice real red i)
 917+ 91EE 23               inc hl
 918+ 91EF 4E               ld c, (hl)                  ; C = display_indices[i+1] (índice real red i+1)
 919+ 91F0
 920+ 91F0                  ; Obtener RSSI de las redes reales
 921+ 91F0 E5               push hl                     ; Guardar &display_indices[i+1]
 922+ 91F1 C5               push bc                     ; Guardar B y C
 923+ 91F2
 924+ 91F2                  ; RSSI de red B
 925+ 91F2 21 61 92         ld hl, rssi_buffer
 926+ 91F5 58               ld e, b
 927+ 91F6 16 00            ld d, 0
 928+ 91F8 19               add hl, de
 929+ 91F9 7E               ld a, (hl)
 930+ 91FA E6 7F            and #7F
 931+ 91FC 57               ld d, a                     ; D = RSSI[indices[i]] & 0x7F
 932+ 91FD
 933+ 91FD                  ; RSSI de red C
 934+ 91FD C1               pop bc                      ; Recuperar B y C
 935+ 91FE D5               push de                     ; Guardar D (RSSI de i)
 936+ 91FF 21 61 92         ld hl, rssi_buffer
 937+ 9202 59               ld e, c
 938+ 9203 16 00            ld d, 0
 939+ 9205 19               add hl, de
 940+ 9206 7E               ld a, (hl)
 941+ 9207 E6 7F            and #7F                     ; A = RSSI[indices[i+1]] & 0x7F
 942+ 9209
 943+ 9209 D1               pop de                      ; D = RSSI de i
 944+ 920A
 945+ 920A                  ; Comparar: si RSSI[i+1] < RSSI[i], intercambiar índices
 946+ 920A BA               cp d
 947+ 920B E1               pop hl                      ; HL = &display_indices[i+1]
 948+ 920C 30 03            jr nc, .noSwap
 949+ 920E
 950+ 920E                  ; Intercambiar display_indices[i] y display_indices[i+1]
 951+ 920E 70               ld (hl), b                  ; display_indices[i+1] = antiguo indices[i]
 952+ 920F 2B               dec hl
 953+ 9210 71               ld (hl), c                  ; display_indices[i] = antiguo indices[i+1]
 954+ 9211
 955+ 9211              .noSwap
 956+ 9211 3A 3F 92         ld a, (sort_index)
 957+ 9214 3C               inc a
 958+ 9215 32 3F 92         ld (sort_index), a
 959+ 9218
 960+ 9218 3A 3E 92         ld a, (sort_compares)
 961+ 921B 3D               dec a
 962+ 921C 32 3E 92         ld (sort_compares), a
 963+ 921F 20 C2            jr nz, .innerLoop
 964+ 9221
 965+ 9221 3A 3D 92         ld a, (sort_passes)
 966+ 9224 3D               dec a
 967+ 9225 32 3D 92         ld (sort_passes), a
 968+ 9228 20 AE            jr nz, .outerLoop
 969+ 922A
 970+ 922A 3E 01            ld a, 1
 971+ 922C 32 54 92         ld (is_sorted), a
 972+ 922F C9               ret
 973+ 9230
 974+ 9230              .unsort
 975+ 9230                  ; Restaurar orden original
 976+ 9230 CD B8 91         call initDisplayIndices
 977+ 9233 C9               ret
 978+ 9234
 979+ 9234              ; ============================================
 980+ 9234              ; getDisplayIndex - Obtiene el índice real de una red
 981+ 9234              ; Entrada: A = posición en pantalla (0-19)
 982+ 9234              ; Salida: A = índice real de la red
 983+ 9234              ; ============================================
 984+ 9234              getDisplayIndex:
 985+ 9234 21 40 92         ld hl, display_indices
 986+ 9237 5F               ld e, a
 987+ 9238 16 00            ld d, 0
 988+ 923A 19               add hl, de
 989+ 923B 7E               ld a, (hl)
 990+ 923C C9               ret
 991+ 923D
 992+ 923D 00           sort_passes     db 0
 993+ 923E 00           sort_compares   db 0
 994+ 923F 00           sort_index      db 0
 995+ 9240 00 00 00...  display_indices ds MAX_NETWORKS
 996+ 9254 00           is_sorted       db 0
 997+ 9255
 998+ 9255              ; Variables del módulo
 999+ 9255 00 C0        buff_ptr        dw buffer
1000+ 9257 61 92        rssi_ptr        dw rssi_buffer
1001+ 9259 00           networks_count  db 0
1002+ 925A 00           seen_cwlap      db 0
1003+ 925B 00           ok_ignored      db 0
1004+ 925C 00           old_fw          db 0
1005+ 925D 00           retry_count     db 0
1006+ 925E 00           is_connected    db 0
1007+ 925F 00           uart_busy       db 0           ; 1=UART ocupado por parser/operación crítica
1008+ 9260 00           debug_log      db 0           ; 1=log TX/RX key info (safe)
1009+ 9261
1010+ 9261 00 00 00...  rssi_buffer     ds MAX_NETWORKS
1011+ 9275 00 00 00...  connected_ssid  ds MAX_SSID_LEN + 1
1012+ 9296 00 00 00...  ip_buffer       ds 16               ; Buffer para IP (xxx.xxx.xxx.xxx + null)
1013+ 92A6
1014+ 92A6                  endmodule
# file closed: modules/wifi.asm
  24  92A6                  include "modules/version.asm"    ; genera VERSION_STRING desde V
# file opened: modules/version.asm
   1+ 92A6                  ; Generate VERSION_STRING from define V
   2+ 92A6                  ; V = Mmp...  (M=major digit, m=minor digit, p=patch digits optional)
   3+ 92A6                  ; Examples: V=12  -> "1.2"
   4+ 92A6                  ;           V=121 -> "1.2.1"
   5+ 92A6                  ;           V=1210 -> "1.2.10"
   6+ 92A6                  LUA ALLPASS
   7+ 92A6 ~                v = tostring(sj.get_define("V"))
   8+ 92A6 ~                maj = string.sub(v, 1, 1)
   9+ 92A6 ~                min = string.sub(v, 2, 2)
  10+ 92A6 ~                patch = string.sub(v, 3)
  11+ 92A6 ~
  12+ 92A6 ~                ver = maj .. "." .. min
  13+ 92A6 ~                if patch ~= nil and patch ~= "" then
  14+ 92A6 ~                    ver = ver .. "." .. patch
  15+ 92A6 ~                end
  16+ 92A6 ~
  17+ 92A6 ~                sj.insert_define("VERSION_STRING", "\"" .. ver .. "\"")
  18+ 92A6                  ENDLUA
# file closed: modules/version.asm
  25  92A6              version_string:
  26  92A6 31 2E 32 2E      db "1.2.1", 0
  26  92AA 31 00
  27  92AC                  include "modules/ui.asm"
# file opened: modules/ui.asm
   1+ 92AC                  module UI
   2+ 92AC              PER_PAGE = 10
   3+ 92AC              MAX_PASS_LEN = 40
   4+ 92AC
   5+ 92AC              init:
   6+ 92AC CD B6 81         call Display.clrscr
   7+ 92AF                  setLineColor 0, 117o
   7+ 92AF 3E 00 0E 4F >    ld a, 0, c, 117o
   7+ 92B3 CD 03 80    >    call Display.setAttr
   7+ 92B6                gotoXY 0, 0
   7+ 92B6 21 00 00    >    ld hl, 0 or (0<<8)
   7+ 92B9 22 4C 82    >    ld (Display.coords), hl
   7+ 92BC                printMsg msg_head
   7+ 92BC 21 4E B3    >    ld hl, msg_head
   7+ 92BF CD 30 80    >  call Display.putStr
   8+ 92C2                  ; Poner "NetManZX v1.0" en amarillo (celdas 14-25)
   9+ 92C2 CD D5 92         call highlightTitle
  10+ 92C5 CD E1 92         call drawStatusBar
  11+ 92C8 CD 01 93         call drawIpBar
  12+ 92CB CD 41 93         call ipShowScanning         ; IP: Scanning al inicio
  13+ 92CE CD 0C 94         call setStatusScanning      ; Estado inicial: Scanning
  14+ 92D1 CD 76 94         call clearPassBuffer
  15+ 92D4 C9               ret
  16+ 92D5
  17+ 92D5              ; Cambia atributos de " NetManZX v1.0 " a amarillo sobre azul
  18+ 92D5              highlightTitle:
  19+ 92D5 21 0B 58         ld hl, #5800 + 11           ; Atributos línea 0, columna 11
  20+ 92D8 3E 4E            ld a, Display.ATTR_TITLE    ; Amarillo brillante sobre azul
  21+ 92DA 06 0B            ld b, 11                    ; 11 celdas: " NetManZX v1.0 "
  22+ 92DC              .loop
  23+ 92DC 77               ld (hl), a
  24+ 92DD 23               inc hl
  25+ 92DE 10 FC            djnz .loop
  26+ 92E0 C9               ret
  27+ 92E1
  28+ 92E1              ; Dibuja la barra de estado inferior
  29+ 92E1              drawStatusBar:
  30+ 92E1                  setLineColor 18, Display.ATTR_STATUSBAR  ; Negro sobre blanco brillante
  30+ 92E1 3E 12 0E 78 >    ld a, 18, c, Display.ATTR_STATUSBAR
  30+ 92E5 CD 03 80    >    call Display.setAttr
  31+ 92E8                  gotoXY 0, 18
  31+ 92E8 21 00 12    >    ld hl, 0 or (18<<8)
  31+ 92EB 22 4C 82    >    ld (Display.coords), hl
  32+ 92EE 21 7B B3         ld hl, msg_log_left
  33+ 92F1 CD 30 80         call Display.putStr
  34+ 92F4                  gotoXY 24, 18
  34+ 92F4 21 18 12    >    ld hl, 24 or (18<<8)
  34+ 92F7 22 4C 82    >    ld (Display.coords), hl
  35+ 92FA 21 93 B3         ld hl, msg_wifi_label
  36+ 92FD CD 30 80         call Display.putStr
  37+ 9300 C9               ret
  38+ 9301
  39+ 9301              ; Dibuja la barra de IP (línea 1) con el mismo estilo que el banner superior
  40+ 9301              drawIpBar:
  41+ 9301                  setLineColor 1, Display.ATTR_HEADER  ; Blanco sobre azul
  41+ 9301 3E 01 0E 4F >    ld a, 1, c, Display.ATTR_HEADER
  41+ 9305 CD 03 80    >    call Display.setAttr
  42+ 9308                  gotoXY 0, 1
  42+ 9308 21 00 01    >    ld hl, 0 or (1<<8)
  42+ 930B 22 4C 82    >    ld (Display.coords), hl
  43+ 930E 21 14 93         ld hl, spaces_44
  44+ 9311 C3 30 80         jp Display.putStr
  45+ 9314
  46+ 9314              spaces_44:
  47+ 9314 20 20 20...      ds 44, ' '
  48+ 9340 00               db 0
  49+ 9341
  50+ 9341              ; Muestra "IP: Scanning..."
  51+ 9341              ipShowScanning:
  52+ 9341 21 C9 93         ld hl, msg_ip_scanning
  53+ 9344 CD 67 93         call ipSetFromZ
  54+ 9347 C3 8F 93         jp ipRenderCentered
  55+ 934A
  56+ 934A              ; Muestra "IP: not connected"
  57+ 934A              ipShowNotConnected:
  58+ 934A 21 B7 93         ld hl, msg_ip_notconn
  59+ 934D CD 67 93         call ipSetFromZ
  60+ 9350 C3 8F 93         jp ipRenderCentered
  61+ 9353
  62+ 9353              ; Muestra "IP: x.x.x.x" si se puede obtener; si no, not connected
  63+ 9353              ipShowConnected:
  64+ 9353 CD AB 90         call Wifi.getIP
  65+ 9356 38 F2            jr c, ipShowNotConnected
  66+ 9358 21 B2 93         ld hl, msg_ip_prefix
  67+ 935B CD 72 93         call ipSetPrefix
  68+ 935E 21 96 92         ld hl, Wifi.ip_buffer
  69+ 9361 CD 7D 93         call ipAppendZ
  70+ 9364 C3 8F 93         jp ipRenderCentered
  71+ 9367
  72+ 9367              ; --- helpers para construir línea de IP en ip_line_buffer ---
  73+ 9367              ; HL -> string Z (0-terminated) a copiar completo a ip_line_buffer
  74+ 9367              ipSetFromZ:
  75+ 9367 11 D9 93         ld de, ip_line_buffer
  76+ 936A              .copy
  77+ 936A 7E               ld a, (hl)
  78+ 936B 12               ld (de), a
  79+ 936C 23               inc hl
  80+ 936D 13               inc de
  81+ 936E A7               and a
  82+ 936F 20 F9            jr nz, .copy
  83+ 9371 C9               ret
  84+ 9372
  85+ 9372              ; Copia prefijo "IP: " a ip_line_buffer (con terminador para ipAppendZ)
  86+ 9372              ipSetPrefix:
  87+ 9372 11 D9 93         ld de, ip_line_buffer
  88+ 9375              .copyP
  89+ 9375 7E               ld a, (hl)
  90+ 9376 12               ld (de), a              ; Copiar incluyendo el 0
  91+ 9377 A7               and a
  92+ 9378 C8               ret z                   ; Retornar después de copiar el 0
  93+ 9379 23               inc hl
  94+ 937A 13               inc de
  95+ 937B 18 F8            jr .copyP
  96+ 937D
  97+ 937D              ; Añade string Z (HL) al final de ip_line_buffer
  98+ 937D              ipAppendZ:
  99+ 937D                  ; buscar 0 en buffer
 100+ 937D 11 D9 93         ld de, ip_line_buffer
 101+ 9380              .find0
 102+ 9380 1A               ld a, (de)
 103+ 9381 A7               and a
 104+ 9382 28 03            jr z, .atEnd
 105+ 9384 13               inc de
 106+ 9385 18 F9            jr .find0
 107+ 9387              .atEnd
 108+ 9387              .copyA
 109+ 9387 7E               ld a, (hl)
 110+ 9388 12               ld (de), a
 111+ 9389 23               inc hl
 112+ 938A 13               inc de
 113+ 938B A7               and a
 114+ 938C 20 F9            jr nz, .copyA
 115+ 938E C9               ret
 116+ 938F
 117+ 938F              ; Render centrado en línea 1 con fondo azul (desplazado 4 chars a la derecha)
 118+ 938F              ipRenderCentered:
 119+ 938F CD 01 93         call drawIpBar
 120+ 9392
 121+ 9392                  ; calcular longitud de ip_line_buffer en B
 122+ 9392 21 D9 93         ld hl, ip_line_buffer
 123+ 9395 06 00            ld b, 0
 124+ 9397              .lenLoop
 125+ 9397 7E               ld a, (hl)
 126+ 9398 A7               and a
 127+ 9399 28 04            jr z, .lenDone
 128+ 939B 23               inc hl
 129+ 939C 04               inc b
 130+ 939D 18 F8            jr .lenLoop
 131+ 939F              .lenDone
 132+ 939F                  ; x = (32 - B) / 2 + 6
 133+ 939F 3E 20            ld a, 32
 134+ 93A1 90               sub b
 135+ 93A2 CB 3F            srl a
 136+ 93A4 C6 06            add a, 6                ; Desplazar 6 a la derecha
 137+ 93A6 6F               ld l, a
 138+ 93A7 26 01            ld h, 1
 139+ 93A9 22 4C 82         ld (Display.coords), hl
 140+ 93AC 21 D9 93         ld hl, ip_line_buffer
 141+ 93AF C3 30 80         jp Display.putStr
 142+ 93B2
 143+ 93B2              ; Buffers/mensajes
 144+ 93B2 49 50 3A 20  msg_ip_prefix      db "IP: ", 0
 144+ 93B6 00
 145+ 93B7 49 50 3A 20  msg_ip_notconn     db "IP: not connected", 0
 145+ 93BB 6E 6F 74 20
 145+ 93BF 63 6F 6E 6E
 145+ 93C3 65 63 74 65
 145+ 93C7 64 00
 146+ 93C9 49 50 3A 20  msg_ip_scanning    db "IP: Scanning...", 0
 146+ 93CD 53 63 61 6E
 146+ 93D1 6E 69 6E 67
 146+ 93D5 2E 2E 2E 00
 147+ 93D9 00 00 00...  ip_line_buffer     ds 40
 148+ 9401
 149+ 9401              ; Colorea las últimas celdas de la línea 18 con color en C
 150+ 9401              colorStatusArea:
 151+ 9401 21 56 5A         ld hl, #5A40 + 22           ; Línea 18, celda 22 (de 32)
 152+ 9404 06 0A            ld b, 10                    ; 10 celdas para cubrir el texto
 153+ 9406 79               ld a, c
 154+ 9407              .loop
 155+ 9407 77               ld (hl), a
 156+ 9408 23               inc hl
 157+ 9409 10 FC            djnz .loop
 158+ 940B C9               ret
 159+ 940C
 160+ 940C              ; Pone estado "Scanning"
 161+ 940C              setStatusScanning:
 162+ 940C 21 31 94         ld hl, status_scanning_data
 163+ 940F 18 08            jr setStatusCommon
 164+ 9411
 165+ 9411              ; Pone estado "Connected"
 166+ 9411              setStatusConnected:
 167+ 9411 21 3F 94         ld hl, status_connected_data
 168+ 9414 18 03            jr setStatusCommon
 169+ 9416
 170+ 9416              ; Pone estado "Disconnected"
 171+ 9416              setStatusDisconnected:
 172+ 9416 21 4D 94         ld hl, status_disconn_data
 173+ 9419                  ; Fall through
 174+ 9419
 175+ 9419              ; Rutina común para mostrar estado
 176+ 9419              ; HL = puntero a datos (color, mensaje)
 177+ 9419              setStatusCommon:
 178+ 9419 7E               ld a, (hl)              ; A = color
 179+ 941A 32 30 94         ld (status_color), a    ; Guardar color temporalmente
 180+ 941D 23               inc hl
 181+ 941E E5               push hl                 ; Guardar puntero a mensaje
 182+ 941F                  gotoXY 30, 18
 182+ 941F 21 1E 12    >    ld hl, 30 or (18<<8)
 182+ 9422 22 4C 82    >    ld (Display.coords), hl
 183+ 9425 E1               pop hl
 184+ 9426 CD 30 80         call Display.putStr     ; HL apunta al mensaje
 185+ 9429 3A 30 94         ld a, (status_color)
 186+ 942C 4F               ld c, a
 187+ 942D C3 01 94         jp colorStatusArea
 188+ 9430
 189+ 9430 00           status_color db 0
 190+ 9431
 191+ 9431              ; Datos de estado: color (1 byte) + mensaje
 192+ 9431              status_scanning_data:
 193+ 9431 78               db Display.ATTR_STATUSBAR   ; Negro sobre blanco brillante
 194+ 9432 53 63 61 6E      db "Scanning    ", 0
 194+ 9436 6E 69 6E 67
 194+ 943A 20 20 20 20
 194+ 943E 00
 195+ 943F              status_connected_data:
 196+ 943F 7C               db 174o                     ; Verde sobre blanco brillante (sin constante, especial)
 197+ 9440 43 6F 6E 6E      db "Connected   ", 0
 197+ 9444 65 63 74 65
 197+ 9448 64 20 20 20
 197+ 944C 00
 198+ 944D              status_disconn_data:
 199+ 944D 7A               db 172o                     ; Rojo sobre blanco brillante (sin constante, especial)
 200+ 944E 44 69 73 63      db "Disconnected", 0
 200+ 9452 6F 6E 6E 65
 200+ 9456 63 74 65 64
 200+ 945A 00
 201+ 945B 43 6F 6E 6E  msg_conn_lost      db "Connection lost!", 13, 10, 0
 201+ 945F 65 63 74 69
 201+ 9463 6F 6E 20 6C
 201+ 9467 6F 73 74 21
 201+ 946B 0D 0A 00
 202+ 946E
 203+ 946E              ; Actualiza estado según Wifi.is_connected
 204+ 946E              updateWifiStatus:
 205+ 946E 3A 5E 92         ld a, (Wifi.is_connected)
 206+ 9471 A7               and a
 207+ 9472 28 A2            jr z, setStatusDisconnected
 208+ 9474 18 9B            jr setStatusConnected
 209+ 9476
 210+ 9476              clearPassBuffer:
 211+ 9476 21 16 B3         ld hl, pass_buffer
 212+ 9479 11 17 B3         ld de, pass_buffer + 1
 213+ 947C AF               xor a
 214+ 947D 77               ld (hl), a
 215+ 947E 01 27 00         ld bc, MAX_PASS_LEN - 1   ; -1 porque el primer byte ya está escrito
 216+ 9481 ED B0            ldir
 217+ 9483 AF               xor a
 218+ 9484 32 40 B3         ld (pass_len), a
 219+ 9487 32 41 B3         ld (pass_cursor), a
 220+ 948A C9               ret
 221+ 948B
 222+ 948B              topClean:
 223+ 948B CD 29 81         call Display.clrListOnly    ; Solo limpia líneas 2-14
 224+ 948E CD 52 95         call clearListAttrs
 225+ 9491 C9               ret
 226+ 9492
 227+ 9492              ; Limpia solo el área de redes (líneas 6-14) - para sort/rescan
 228+ 9492              clearNetworksArea:
 229+ 9492 C3 75 81         jp Display.clrNetworksOnly
 230+ 9495
 231+ 9495              ; renderNetworksOnly - Redibuja SOLO el listado (líneas 6-14).
 232+ 9495              ; No toca indicadores/menú superior (scroll/page info).
 233+ 9495              ; Usado para refrescos por desconexión para evitar parpadeo/cambios arriba.
 234+ 9495              renderNetworksOnly:
 235+ 9495 CD 92 94         call clearNetworksArea
 236+ 9498 18 0F            jr renderNetworksCommon
 237+ 949A
 238+ 949A              ; renderListOnly - Redibuja solo las redes + indicadores, no la ayuda
 239+ 949A              ; Usado por sort y rescan para evitar parpadeo
 240+ 949A              renderListOnly:
 241+ 949A CD 92 94         call clearNetworksArea
 242+ 949D CD 31 96         call showScrollIndicators
 243+ 94A0 CD 58 B0         call showPageInfo
 244+ 94A3 CD A9 94         call renderNetworksCommon
 245+ 94A6 C3 00 98         jp showCursor
 246+ 94A9
 247+ 94A9              ; ============================================
 248+ 94A9              ; renderNetworksCommon - Rutina común para dibujar lista de redes
 249+ 94A9              ; Entrada: área ya limpiada
 250+ 94A9              ; ============================================
 251+ 94A9              renderNetworksCommon:
 252+ 94A9                  ; Posicionar en línea 6 para empezar a listar
 253+ 94A9                  gotoXY 0, 6
 253+ 94A9 21 00 06    >    ld hl, 0 or (6<<8)
 253+ 94AC 22 4C 82    >    ld (Display.coords), hl
 254+ 94AF
 255+ 94AF                  ; Calcular cuántas redes mostrar en esta página
 256+ 94AF 3A 59 92         ld a, (Wifi.networks_count)
 257+ 94B2 21 43 B3         ld hl, offset
 258+ 94B5 96               sub (hl)
 259+ 94B6 FE 0A            cp PER_PAGE
 260+ 94B8 38 02            jr c, .gotCount
 261+ 94BA 3E 0A            ld a, PER_PAGE
 262+ 94BC              .gotCount
 263+ 94BC 47               ld b, a
 264+ 94BD
 265+ 94BD                  ; Verificar que hay redes
 266+ 94BD A7               and a
 267+ 94BE 28 6A            jr z, .noNetworks
 268+ 94C0
 269+ 94C0                  ; Inicializar índice de pantalla actual
 270+ 94C0 3A 43 B3         ld a, (offset)
 271+ 94C3 32 14 97         ld (current_screen_idx), a
 272+ 94C6
 273+ 94C6                  ; Inicializar línea actual (empezar en 6)
 274+ 94C6 3E 06            ld a, 6
 275+ 94C8 32 13 97         ld (current_line), a
 276+ 94CB
 277+ 94CB              .showLoop
 278+ 94CB C5               push bc
 279+ 94CC
 280+ 94CC                  ; Obtener puntero al SSID usando findRow (respeta display_indices)
 281+ 94CC 3A 14 97         ld a, (current_screen_idx)
 282+ 94CF 57               ld d, a
 283+ 94D0 CD 1B A2         call findRow                ; HL = puntero al SSID
 284+ 94D3
 285+ 94D3                  ; Atributo por defecto (solo zona de lista)
 286+ 94D3 E5               push hl
 287+ 94D4 3A 13 97         ld a, (current_line)
 288+ 94D7 0E 47            ld c, Display.ATTR_NORMAL
 289+ 94D9 CD 1B 80         call Display.setAttrPartial
 290+ 94DC E1               pop hl
 291+ 94DD
 292+ 94DD                  ; Resaltar SSID conectado si corresponde
 293+ 94DD 3A 5E 92         ld a, (Wifi.is_connected)
 294+ 94E0 A7               and a
 295+ 94E1 28 1A            jr z, .noConnAttr
 296+ 94E3 7E               ld a, (hl)
 297+ 94E4 A7               and a
 298+ 94E5 28 16            jr z, .noConnAttr           ; SSID vacío -> no resaltar
 299+ 94E7
 300+ 94E7 E5               push hl
 301+ 94E8 C5               push bc
 302+ 94E9 11 75 92         ld de, Wifi.connected_ssid
 303+ 94EC CD 4E 8A         call Display.compareStringZ
 304+ 94EF C1               pop bc
 305+ 94F0 E1               pop hl
 306+ 94F1 20 0A            jr nz, .noConnAttr          ; No coincide
 307+ 94F3
 308+ 94F3                  ; Es la red conectada - resaltar en cyan
 309+ 94F3 E5               push hl
 310+ 94F4 3A 13 97         ld a, (current_line)
 311+ 94F7 0E 45            ld c, Display.ATTR_CONNECTED
 312+ 94F9 CD 1B 80         call Display.setAttrPartial
 313+ 94FC E1               pop hl
 314+ 94FD
 315+ 94FD              .noConnAttr
 316+ 94FD                  ; Verificar si SSID está vacío (red oculta)
 317+ 94FD 7E               ld a, (hl)
 318+ 94FE A7               and a
 319+ 94FF 20 03            jr nz, .printSSID
 320+ 9501 21 37 95         ld hl, msg_hidden           ; SSID vacío - mostrar "<hidden>"
 321+ 9504              .printSSID
 322+ 9504                  ; Imprimir SSID limitado a 29 caracteres (dejar espacio antes de RSSI)
 323+ 9504 06 1D            ld b, 29
 324+ 9506 CD 40 95         call putStrLimited
 325+ 9509
 326+ 9509                  ; Mover cursor a columna fija (30) para RSSI
 327+ 9509 3A 13 97         ld a, (current_line)
 328+ 950C 67               ld h, a
 329+ 950D 2E 1E            ld l, 30
 330+ 950F 22 4C 82         ld (Display.coords), hl
 331+ 9512
 332+ 9512                  ; Mostrar indicador RSSI (usa current_screen_idx)
 333+ 9512 CD 97 96         call printRssi
 334+ 9515
 335+ 9515                  ; Incrementar índice de pantalla
 336+ 9515 3A 14 97         ld a, (current_screen_idx)
 337+ 9518 3C               inc a
 338+ 9519 32 14 97         ld (current_screen_idx), a
 339+ 951C
 340+ 951C                  ; Incrementar línea
 341+ 951C 3A 13 97         ld a, (current_line)
 342+ 951F 3C               inc a
 343+ 9520 32 13 97         ld (current_line), a
 344+ 9523
 345+ 9523                  ; Ir a la siguiente línea
 346+ 9523 CD 5D 80         call Display.putC.cr
 347+ 9526
 348+ 9526 C1               pop bc
 349+ 9527 10 A2            djnz .showLoop
 350+ 9529 C9               ret
 351+ 952A
 352+ 952A              .noNetworks
 353+ 952A                  gotoXY 0, 6
 353+ 952A 21 00 06    >    ld hl, 0 or (6<<8)
 353+ 952D 22 4C 82    >    ld (Display.coords), hl
 354+ 9530 21 A5 95         ld hl, no_net_msg
 355+ 9533 CD 30 80         call Display.putStr
 356+ 9536 C9               ret
 357+ 9537
 358+ 9537 3C 68 69 64  msg_hidden db "<hidden>", 0
 358+ 953B 64 65 6E 3E
 358+ 953F 00
 359+ 9540
 360+ 9540              ; ============================================
 361+ 9540              ; putStrLimited - Imprime string Z-terminated con límite
 362+ 9540              ; Entrada: HL = puntero al string, B = máximo caracteres
 363+ 9540              ; ============================================
 364+ 9540              putStrLimited:
 365+ 9540 7E               ld a, (hl)
 366+ 9541 A7               and a
 367+ 9542 C8               ret z               ; Fin del string
 368+ 9543 78               ld a, b
 369+ 9544 A7               and a
 370+ 9545 C8               ret z               ; Límite alcanzado
 371+ 9546 E5               push hl
 372+ 9547 C5               push bc
 373+ 9548 7E               ld a, (hl)
 374+ 9549 CD 46 80         call Display.putC
 375+ 954C C1               pop bc
 376+ 954D E1               pop hl
 377+ 954E 23               inc hl
 378+ 954F 05               dec b
 379+ 9550 18 EE            jr putStrLimited
 380+ 9552
 381+ 9552              ; Limpia los atributos de las líneas 2-17 (blanco sobre negro)
 382+ 9552              ; Optimizado con LDIR
 383+ 9552              clearListAttrs:
 384+ 9552 21 40 58         ld hl, #5800 + 64           ; Línea 2, columna 0
 385+ 9555 3E 47            ld a, Display.ATTR_NORMAL   ; Blanco sobre negro
 386+ 9557 77               ld (hl), a                  ; Primer byte
 387+ 9558 11 41 58         ld de, #5800 + 65           ; Destino = origen + 1
 388+ 955B 01 FF 01         ld bc, 16 * 32 - 1          ; 16 líneas (2-17) * 32 - 1 = 511 bytes
 389+ 955E ED B0            ldir
 390+ 9560 C9               ret
 391+ 9561
 392+ 9561              ; Pantalla de éxito de conexión (bucle infinito)
 393+ 9561              showConnectedSuccessScreen:
 394+ 9561 CD 8B 94         call topClean
 395+ 9564                  gotoXY 0, 3
 395+ 9564 21 00 03    >    ld hl, 0 or (3<<8)
 395+ 9567 22 4C 82    >    ld (Display.coords), hl
 395+ 956A 21 3F B1       ld hl, msg_done
 395+ 956D CD 30 80       call Display.putStr
 396+ 9570              .deadLoop
 397+ 9570 76               halt
 398+ 9571 18 FD            jr .deadLoop
 399+ 9573
 400+ 9573              ; ============================================
 401+ 9573              ; renderList - Dibuja lista completa con ayuda
 402+ 9573              ; ============================================
 403+ 9573              renderList:
 404+ 9573 CD 8B 94         call topClean
 405+ 9576
 406+ 9576                  ; Mostrar ayuda en línea 3 (según estado de conexión)
 407+ 9576                  gotoXY 0, 3
 407+ 9576 21 00 03    >    ld hl, 0 or (3<<8)
 407+ 9579 22 4C 82    >    ld (Display.coords), hl
 408+ 957C 3A 5E 92         ld a, (Wifi.is_connected)
 409+ 957F A7               and a
 410+ 9580 28 05            jr z, .showHelpDisconn
 411+ 9582 21 EF 95         ld hl, msg_help_conn       ; Conectado: incluye X:Disconnect
 412+ 9585 18 03            jr .printHelp
 413+ 9587              .showHelpDisconn
 414+ 9587 21 CD 95         ld hl, msg_help            ; No conectado
 415+ 958A              .printHelp
 416+ 958A CD 30 80         call Display.putStr
 417+ 958D
 418+ 958D                  ; Mostrar opción de SSID manual en línea 4
 419+ 958D                  gotoXY 0, 4
 419+ 958D 21 00 04    >    ld hl, 0 or (4<<8)
 419+ 9590 22 4C 82    >    ld (Display.coords), hl
 420+ 9593 21 12 96         ld hl, msg_help2
 421+ 9596 CD 30 80         call Display.putStr
 422+ 9599
 423+ 9599                  ; Mostrar indicadores de scroll
 424+ 9599 CD 31 96         call showScrollIndicators
 425+ 959C
 426+ 959C CD 58 B0         call showPageInfo
 427+ 959F
 428+ 959F                  ; Usar rutina común para dibujar redes
 429+ 959F CD A9 94         call renderNetworksCommon
 430+ 95A2 C3 00 98         jp showCursor
 431+ 95A5
 432+ 95A5 4E 6F 20 6E  no_net_msg db "No networks found. Press 'R' to rescan.", 0
 432+ 95A9 65 74 77 6F
 432+ 95AD 72 6B 73 20
 432+ 95B1 66 6F 75 6E
 432+ 95B5 64 2E 20 50
 432+ 95B9 72 65 73 73
 432+ 95BD 20 27 52 27
 432+ 95C1 20 74 6F 20
 432+ 95C5 72 65 73 63
 432+ 95C9 61 6E 2E 00
 433+ 95CD 51 2F 41 3A  msg_help   db "Q/A:Nav O/P:Page R:Refresh S:Sort", 0
 433+ 95D1 4E 61 76 20
 433+ 95D5 4F 2F 50 3A
 433+ 95D9 50 61 67 65
 433+ 95DD 20 52 3A 52
 433+ 95E1 65 66 72 65
 433+ 95E5 73 68 20 53
 433+ 95E9 3A 53 6F 72
 433+ 95ED 74 00
 434+ 95EF 51 2F 41 3A  msg_help_conn db "Q/A:Nav R:Refresh S:Sort X:Disconn", 0
 434+ 95F3 4E 61 76 20
 434+ 95F7 52 3A 52 65
 434+ 95FB 66 72 65 73
 434+ 95FF 68 20 53 3A
 434+ 9603 53 6F 72 74
 434+ 9607 20 58 3A 44
 434+ 960B 69 73 63 6F
 434+ 960F 6E 6E 00
 435+ 9612 48 3A 48 69  msg_help2  db "H:Hidden network D:Diagnostics", 0
 435+ 9616 64 64 65 6E
 435+ 961A 20 6E 65 74
 435+ 961E 77 6F 72 6B
 435+ 9622 20 44 3A 44
 435+ 9626 69 61 67 6E
 435+ 962A 6F 73 74 69
 435+ 962E 63 73 00
 436+ 9631
 437+ 9631              ; ============================================
 438+ 9631              ; Muestra flechas de scroll en línea 16
 439+ 9631              ; DOWN en Col 0 (izquierda), UP en Col 41 (derecha)
 440+ 9631              ; ============================================
 441+ 9631              showScrollIndicators:
 442+ 9631                  ; 1. Limpiar zona de flechas (izquierda y derecha)
 443+ 9631                  gotoXY 0, 16
 443+ 9631 21 00 10    >    ld hl, 0 or (16<<8)
 443+ 9634 22 4C 82    >    ld (Display.coords), hl
 444+ 9637 3E 20            ld a, ' '
 444+ 9639 CD 46 80       call Display.putC
 445+ 963C                  gotoXY 41, 16
 445+ 963C 21 29 10    >    ld hl, 41 or (16<<8)
 445+ 963F 22 4C 82    >    ld (Display.coords), hl
 446+ 9642 3E 20            ld a, ' '
 446+ 9644 CD 46 80       call Display.putC
 447+ 9647
 448+ 9647                  ; 2. Verificar Flecha ABAJO (Offset + PER_PAGE < Count) - IZQUIERDA
 449+ 9647 3A 43 B3         ld a, (offset)
 450+ 964A C6 0A            add a, PER_PAGE
 451+ 964C 47               ld b, a
 452+ 964D 3A 59 92         ld a, (Wifi.networks_count)
 453+ 9650 B8               cp b
 454+ 9651 38 0D            jr c, .chkUp            ; No hay más abajo
 455+ 9653 28 0B            jr z, .chkUp            ; Son iguales
 456+ 9655
 457+ 9655                  gotoXY 0, 16
 457+ 9655 21 00 10    >    ld hl, 0 or (16<<8)
 457+ 9658 22 4C 82    >    ld (Display.coords), hl
 458+ 965B 3E 19            ld a, 25                ; Char flecha abajo (↓)
 459+ 965D CD 46 80         call Display.putC
 460+ 9660
 461+ 9660              .chkUp
 462+ 9660                  ; 3. Verificar Flecha ARRIBA (Offset > 0) - DERECHA
 463+ 9660 3A 43 B3         ld a, (offset)
 464+ 9663 A7               and a
 465+ 9664 C8               ret z                   ; No hay más arriba
 466+ 9665
 467+ 9665                  gotoXY 41, 16
 467+ 9665 21 29 10    >    ld hl, 41 or (16<<8)
 467+ 9668 22 4C 82    >    ld (Display.coords), hl
 468+ 966B 3E 18            ld a, 24                ; Char flecha arriba (↑)
 469+ 966D CD 46 80         call Display.putC
 470+ 9670 C9               ret
 471+ 9671
 472+ 9671              ; ============================================
 473+ 9671              ; clampOffsetToCount
 474+ 9671              ;   Asegura que 'offset' no apunte fuera del rango tras un rescan.
 475+ 9671              ;   Si offset >= networks_count, lo ajusta al inicio de la última página.
 476+ 9671              ;   Si networks_count == 0, offset = 0.
 477+ 9671              ; ============================================
 478+ 9671              clampOffsetToCount:
 479+ 9671 3A 59 92         ld a, (Wifi.networks_count)
 480+ 9674 A7               and a
 481+ 9675 20 05            jr nz, .have
 482+ 9677 AF               xor a
 483+ 9678 32 43 B3         ld (offset), a
 484+ 967B C9               ret
 485+ 967C              .have
 486+ 967C 47               ld b, a                      ; B = count
 487+ 967D 3A 43 B3         ld a, (offset)
 488+ 9680 B8               cp b
 489+ 9681 D8               ret c                        ; offset < count -> OK
 490+ 9682
 491+ 9682                  ; Calcular last_start = ((count-1)/PER_PAGE)*PER_PAGE
 492+ 9682 78               ld a, b
 493+ 9683 3D               dec a                        ; A = count-1
 494+ 9684 06 00            ld b, 0                      ; B = last_start
 495+ 9686              .div
 496+ 9686 D6 0A            sub PER_PAGE
 497+ 9688 38 08            jr c, .done
 498+ 968A 4F               ld c, a
 499+ 968B 78               ld a, b
 500+ 968C C6 0A            add a, PER_PAGE
 501+ 968E 47               ld b, a
 502+ 968F 79               ld a, c
 503+ 9690 18 F4            jr .div
 504+ 9692              .done
 505+ 9692 78               ld a, b
 506+ 9693 32 43 B3         ld (offset), a
 507+ 9696 C9               ret
 508+ 9697
 509+ 9697              ; ============================================
 510+ 9697              ; printRssi - Imprime indicador de señal
 511+ 9697              ; Usa current_screen_idx para obtener el índice real vía display_indices
 512+ 9697              ; ============================================
 513+ 9697              printRssi:
 514+ 9697                  ; Obtener índice real usando display_indices
 515+ 9697 3A 14 97         ld a, (current_screen_idx)
 516+ 969A CD 34 92         call Wifi.getDisplayIndex   ; A = índice real de la red
 517+ 969D
 518+ 969D                  ; Obtener RSSI de esa red
 519+ 969D 21 61 92         ld hl, Wifi.rssi_buffer
 520+ 96A0 5F               ld e, a
 521+ 96A1 16 00            ld d, 0
 522+ 96A3 19               add hl, de
 523+ 96A4 7E               ld a, (hl)
 524+ 96A5
 525+ 96A5                  ; Guardar valor en memoria
 526+ 96A5 32 11 97         ld (rssi_value), a
 527+ 96A8
 528+ 96A8                  ; Indicador red abierta/cerrada
 529+ 96A8 E6 80            and #80
 530+ 96AA 28 04            jr z, .locked
 531+ 96AC 3E 09            ld a, 9                 ; Abierta (círculo hueco)
 532+ 96AE 18 02            jr .printLock
 533+ 96B0              .locked
 534+ 96B0 3E 07            ld a, 7                 ; Cerrada (círculo relleno)
 535+ 96B2              .printLock
 536+ 96B2 CD 46 80         call Display.putC
 537+ 96B5
 538+ 96B5                  ; Recuperar RSSI y calcular barras
 539+ 96B5 3A 11 97         ld a, (rssi_value)
 540+ 96B8 E6 7F            and #7F                 ; A = RSSI (0-127)
 541+ 96BA
 542+ 96BA                  ; Fórmula: Barras = (93 - RSSI) / 6, clampeado 1-10
 543+ 96BA                  ; RSSI bajo = mejor señal = más barras
 544+ 96BA 47               ld b, a                 ; B = RSSI
 545+ 96BB 3E 5D            ld a, 93
 546+ 96BD 90               sub b                   ; A = 93 - RSSI
 547+ 96BE 30 03            jr nc, .calc_bars
 548+ 96C0 AF               xor a                   ; Si RSSI > 93, resultado 0
 549+ 96C1 18 09            jr .clamp_min
 550+ 96C3
 551+ 96C3              .calc_bars
 552+ 96C3 06 00            ld b, 0                 ; Contador de barras
 553+ 96C5 0E 06            ld c, 6                 ; Divisor
 554+ 96C7              .div_loop
 555+ 96C7 04               inc b
 556+ 96C8 91               sub c
 557+ 96C9 30 FC            jr nc, .div_loop
 558+ 96CB 78               ld a, b                 ; A = resultado división
 559+ 96CC
 560+ 96CC              .clamp_min
 561+ 96CC A7               and a
 562+ 96CD 20 01            jr nz, .clamp_max
 563+ 96CF 3C               inc a                   ; Mínimo 1 barra
 564+ 96D0              .clamp_max
 565+ 96D0 FE 0B            cp 11
 566+ 96D2 38 02            jr c, .gotBars
 567+ 96D4 3E 0A            ld a, 10                ; Máximo 10 barras
 568+ 96D6
 569+ 96D6              .gotBars
 570+ 96D6 47               ld b, a
 571+ 96D7 32 12 97         ld (rssi_bars), a       ; Guardar número de barras
 572+ 96DA 48               ld c, b
 573+ 96DB
 574+ 96DB              .drawFull
 575+ 96DB 78               ld a, b
 576+ 96DC A7               and a
 577+ 96DD 28 0A            jr z, .drawEmpty
 578+ 96DF C5               push bc
 579+ 96E0 3E 7C            ld a, '|'
 580+ 96E2 CD 46 80         call Display.putC
 581+ 96E5 C1               pop bc
 582+ 96E6 05               dec b
 583+ 96E7 18 F2            jr .drawFull
 584+ 96E9
 585+ 96E9              .drawEmpty
 586+ 96E9 3E 0A            ld a, 10
 587+ 96EB 91               sub c
 588+ 96EC 28 0B            jr z, .colorBars
 589+ 96EE 47               ld b, a
 590+ 96EF
 591+ 96EF              .emptyLoop
 592+ 96EF C5               push bc
 593+ 96F0 3E 2E            ld a, '.'
 594+ 96F2 CD 46 80         call Display.putC
 595+ 96F5 C1               pop bc
 596+ 96F6 05               dec b
 597+ 96F7 20 F6            jr nz, .emptyLoop
 598+ 96F9
 599+ 96F9              .colorBars
 600+ 96F9                  ; Colorear la zona de barras en verde
 601+ 96F9                  ; current_line tiene la línea actual (6-15)
 602+ 96F9 3A 13 97         ld a, (current_line)
 603+ 96FC 6F               ld l, a
 604+ 96FD 26 00            ld h, 0
 605+ 96FF 29               add hl, hl              ; x2
 606+ 9700 29               add hl, hl              ; x4
 607+ 9701 29               add hl, hl              ; x8
 608+ 9702 29               add hl, hl              ; x16
 609+ 9703 29               add hl, hl              ; x32
 610+ 9704 11 16 58         ld de, #5800 + 22       ; Base + columna 22 (cubre cols texto 30-40)
 611+ 9707 19               add hl, de              ; HL = dirección del atributo
 612+ 9708
 613+ 9708                  ; Colorear 10 celdas en verde (columnas 22-31)
 614+ 9708 3E 04            ld a, Display.ATTR_RSSI ; Verde sobre negro
 615+ 970A 06 0A            ld b, 10
 616+ 970C              .colorLoop
 617+ 970C 77               ld (hl), a
 618+ 970D 23               inc hl
 619+ 970E 10 FC            djnz .colorLoop
 620+ 9710
 621+ 9710 C9               ret
 622+ 9711
 623+ 9711 00           rssi_value db 0
 624+ 9712 00           rssi_bars db 0
 625+ 9713 00           current_line db 0
 626+ 9714 00           current_screen_idx db 0
 627+ 9715
 628+ 9715              ; ============================================
 629+ 9715              ; showConnectedDialog
 630+ 9715              ; ============================================
 631+ 9715              showConnectedDialog:
 632+ 9715 CD 8B 94         call topClean
 633+ 9718                  gotoXY 1, 3
 633+ 9718 21 01 03    >    ld hl, 1 or (3<<8)
 633+ 971B 22 4C 82    >    ld (Display.coords), hl
 633+ 971E 21 83 97       ld hl, .msg_already
 633+ 9721 CD 30 80       call Display.putStr
 634+ 9724                  gotoXY 1, 5
 634+ 9724 21 01 05    >    ld hl, 1 or (5<<8)
 634+ 9727 22 4C 82    >    ld (Display.coords), hl
 634+ 972A 21 9F 97       ld hl, .msg_network
 634+ 972D CD 30 80       call Display.putStr
 635+ 9730                  gotoXY 3, 6
 635+ 9730 21 03 06    >    ld hl, 3 or (6<<8)
 635+ 9733 22 4C 82    >    ld (Display.coords), hl
 636+ 9736                  setLineColor 6, Display.ATTR_SSID_INPUT
 636+ 9736 3E 06 0E 24 >    ld a, 6, c, Display.ATTR_SSID_INPUT
 636+ 973A CD 03 80    >    call Display.setAttr
 637+ 973D 21 75 92         ld hl, Wifi.connected_ssid
 638+ 9740 CD 30 80         call Display.putStr
 639+ 9743                  setLineColor 6, Display.ATTR_NORMAL
 639+ 9743 3E 06 0E 47 >    ld a, 6, c, Display.ATTR_NORMAL
 639+ 9747 CD 03 80    >    call Display.setAttr
 640+ 974A                  gotoXY 1, 8
 640+ 974A 21 01 08    >    ld hl, 1 or (8<<8)
 640+ 974D 22 4C 82    >    ld (Display.coords), hl
 640+ 9750 21 B5 97       ld hl, .msg_question
 640+ 9753 CD 30 80       call Display.putStr
 641+ 9756                  gotoXY 1, 10
 641+ 9756 21 01 0A    >    ld hl, 1 or (10<<8)
 641+ 9759 22 4C 82    >    ld (Display.coords), hl
 641+ 975C 21 D1 97       ld hl, .msg_options
 641+ 975F CD 30 80       call Display.putStr
 642+ 9762
 643+ 9762              .waitKey
 644+ 9762 76               halt
 645+ 9763 CD 2E B5         call Keyboard.inKey
 646+ 9766 A7               and a
 646+ 9767 28 F9          jr z, .waitKey
 647+ 9769 FE 79            cp 'y'
 647+ 976B 28 12          jr z, .reconfigure
 648+ 976D FE 59            cp 'Y'
 648+ 976F 28 0E          jr z, .reconfigure
 649+ 9771 FE 6E            cp 'n'
 649+ 9773 28 0C          jr z, .keepConfig
 650+ 9775 FE 4E            cp 'N'
 650+ 9777 28 08          jr z, .keepConfig
 651+ 9779 FE 0F            cp 15
 651+ 977B 28 04          jr z, .keepConfig
 652+ 977D 18 E3            jr .waitKey
 653+ 977F
 654+ 977F              .reconfigure
 655+ 977F B7               or a
 655+ 9780 C9             ret
 656+ 9781              .keepConfig
 657+ 9781 37               scf
 657+ 9782 C9             ret
 658+ 9783
 659+ 9783 57 69 46 69  .msg_already   db "WiFi is already configured!", 0
 659+ 9787 20 69 73 20
 659+ 978B 61 6C 72 65
 659+ 978F 61 64 79 20
 659+ 9793 63 6F 6E 66
 659+ 9797 69 67 75 72
 659+ 979B 65 64 21 00
 660+ 979F 43 6F 6E 6E  .msg_network   db "Connected to network:", 0
 660+ 97A3 65 63 74 65
 660+ 97A7 64 20 74 6F
 660+ 97AB 20 6E 65 74
 660+ 97AF 77 6F 72 6B
 660+ 97B3 3A 00
 661+ 97B5 44 6F 20 79  .msg_question  db "Do you want to reconfigure?", 0
 661+ 97B9 6F 75 20 77
 661+ 97BD 61 6E 74 20
 661+ 97C1 74 6F 20 72
 661+ 97C5 65 63 6F 6E
 661+ 97C9 66 69 67 75
 661+ 97CD 72 65 3F 00
 662+ 97D1 28 59 29 65  .msg_options   db "(Y)es to reconfigure / (N)o to exit", 0
 662+ 97D5 73 20 74 6F
 662+ 97D9 20 72 65 63
 662+ 97DD 6F 6E 66 69
 662+ 97E1 67 75 72 65
 662+ 97E5 20 2F 20 28
 662+ 97E9 4E 29 6F 20
 662+ 97ED 74 6F 20 65
 662+ 97F1 78 69 74 00
 663+ 97F5
 664+ 97F5              ; ============================================
 665+ 97F5              ; Cursor y navegación
 666+ 97F5              ; ============================================
 667+ 97F5              hideCursor:
 668+ 97F5 CD 12 98         call cursorIsConnectedRow
 669+ 97F8 0E 47            ld c, Display.ATTR_NORMAL
 670+ 97FA 30 0D            jr nc, cursor
 671+ 97FC 0E 45            ld c, Display.ATTR_CONNECTED  ; Connected row: cyan on black
 672+ 97FE 18 09            jr cursor
 673+ 9800              showCursor:
 674+ 9800 CD 12 98         call cursorIsConnectedRow
 675+ 9803 0E 70            ld c, Display.ATTR_HIGHLIGHT
 676+ 9805 30 02            jr nc, cursor
 677+ 9807 0E 31            ld c, Display.ATTR_CONN_CURSOR  ; Cursor on connected row: blue on yellow
 678+ 9809              cursor:
 679+ 9809 3A 42 B3         ld a,(cursor_position)
 679+ 980C C6 06          add a, 6
 679+ 980E CD 1B 80       call Display.setAttrPartial
 680+ 9811 C9               ret
 681+ 9812
 682+ 9812              ; ============================================
 683+ 9812              ; cursorIsConnectedRow
 684+ 9812              ;   CF=1 if cursor is on the currently connected SSID (and WiFi is connected)
 685+ 9812              ;   CF=0 otherwise
 686+ 9812              ; Destroys: AF,BC,DE,HL
 687+ 9812              ; ============================================
 688+ 9812              cursorIsConnectedRow:
 689+ 9812                  ; Must be connected
 690+ 9812 3A 5E 92         ld a, (Wifi.is_connected)
 691+ 9815 A7               and a
 692+ 9816 B7               or a
 693+ 9817 C8               ret z
 694+ 9818
 695+ 9818                  ; HL = SSID pointer for (offset + cursor_position), respecting display_indices
 696+ 9818 3A 42 B3         ld a, (cursor_position)
 697+ 981B 21 43 B3         ld hl, offset
 698+ 981E 86               add a, (hl)
 699+ 981F 57               ld d, a
 700+ 9820 CD 1B A2         call findRow
 701+ 9823
 702+ 9823                  ; Hidden/empty SSID can't be the connected one
 703+ 9823 7E               ld a, (hl)
 704+ 9824 A7               and a
 705+ 9825 B7               or a
 706+ 9826 C8               ret z
 707+ 9827
 708+ 9827                  ; Compare selected SSID with connected_ssid
 709+ 9827 11 75 92         ld de, Wifi.connected_ssid
 710+ 982A CD 4E 8A         call Display.compareStringZ
 711+ 982D C0               ret nz              ; No coincide -> CF=0
 712+ 982E 37               scf                 ; Coincide -> CF=1
 713+ 982F C9               ret
 714+ 9830
 715+ 9830              ; ============================================
 716+ 9830              ; invalidateConnectedIfMissing
 717+ 9830              ; Si estamos marcados como conectados pero el SSID conectado no aparece en el último scan,
 718+ 9830              ; invalida estado y actualiza UI (solo invalidar, no reconstruir)
 719+ 9830              ; ============================================
 720+ 9830              invalidateConnectedIfMissing:
 721+ 9830                  ; Solo si is_connected=1 y connected_ssid no vacío
 722+ 9830 3A 5E 92         ld a, (Wifi.is_connected)
 723+ 9833 A7               and a
 724+ 9834 C8               ret z
 725+ 9835 3A 75 92         ld a, (Wifi.connected_ssid)
 726+ 9838 A7               and a
 727+ 9839 C8               ret z
 728+ 983A
 729+ 983A CD 42 98         call connectedSSIDPresentInList
 730+ 983D D8               ret c                       ; presente -> mantener
 731+ 983E                  ; No aparece en lista -> invalidar
 732+ 983E CD A9 99         call doMarkDisconnected
 733+ 9841 C9               ret
 734+ 9842
 735+ 9842              ; ============================================
 736+ 9842              ; connectedSSIDPresentInList
 737+ 9842              ; CF=1 si Wifi.connected_ssid aparece en la lista (buffer), CF=0 si no
 738+ 9842              ; ============================================
 739+ 9842              connectedSSIDPresentInList:
 740+ 9842 3A 59 92         ld a, (Wifi.networks_count)
 741+ 9845 A7               and a
 742+ 9846 28 1C            jr z, .notFound
 743+ 9848
 744+ 9848 47               ld b, a
 745+ 9849 21 00 C0         ld hl, buffer
 746+ 984C              .loopNet
 747+ 984C 7E               ld a, (hl)
 748+ 984D A7               and a
 749+ 984E 28 14            jr z, .notFound
 750+ 9850
 751+ 9850 E5               push hl
 752+ 9851 C5               push bc
 753+ 9852 11 75 92         ld de, Wifi.connected_ssid
 754+ 9855 CD 4E 8A         call Display.compareStringZ
 755+ 9858 C1               pop bc
 756+ 9859 E1               pop hl
 757+ 985A 28 0A            jr z, .found        ; Z=1 significa iguales
 758+ 985C
 759+ 985C                  ; Avanzar al siguiente SSID (buscar el 0 terminador)
 760+ 985C AF               xor a
 761+ 985D 01 FF FF         ld bc, #ffff
 762+ 9860 ED B1            cpir                ; HL apunta después del 0
 763+ 9862 10 E8            djnz .loopNet
 764+ 9864
 765+ 9864              .notFound
 766+ 9864 B7               or a
 767+ 9865 C9               ret
 768+ 9866
 769+ 9866              .found
 770+ 9866 37               scf
 771+ 9867 C9               ret
 772+ 9868
 773+ 9868
 774+ 9868              uiLoop:
 775+ 9868                  ; Limpiar buffer de teclado al inicio (evita auto-selección por basura)
 776+ 9868 AF               xor a
 777+ 9869 32 08 5C         ld (Keyboard.BASIC_KEY), a
 778+ 986C
 779+ 986C              uiLoopMain:
 780+ 986C 76               halt
 781+ 986D
 782+ 986D                  ; Incrementar contador de auto-rescan
 783+ 986D 2A 49 B3         ld hl, (autoscan_counter)
 784+ 9870 23               inc hl
 785+ 9871 22 49 B3         ld (autoscan_counter), hl
 786+ 9874
 787+ 9874                  ; Verificar si llegó a 15000 (5 min × 50 fps)
 788+ 9874 11 98 3A         ld de, 15000
 789+ 9877 B7               or a
 790+ 9878 ED 52            sbc hl, de
 791+ 987A 20 09            jr nz, .noAutoRescan
 792+ 987C
 793+ 987C                  ; Auto-rescan: resetear contador y hacer rescan silencioso
 794+ 987C 21 00 00         ld hl, 0
 795+ 987F 22 49 B3         ld (autoscan_counter), hl
 796+ 9882 CD 19 9A         call doAutoRescan
 797+ 9885
 798+ 9885              .noAutoRescan
 799+ 9885                  ; Health-check periódico (solo para invalidar estado si se pierde conexión)
 800+ 9885 2A 4B B3         ld hl, (health_counter)
 801+ 9888 23               inc hl
 802+ 9889 22 4B B3         ld (health_counter), hl
 803+ 988C 11 F4 01         ld de, 500                   ; ~10s @50fps (menos agresivo)
 804+ 988F B7               or a
 805+ 9890 ED 52            sbc hl, de
 806+ 9892 20 30            jr nz, .noHealthCheck
 807+ 9894 21 00 00         ld hl, 0
 808+ 9897 22 4B B3         ld (health_counter), hl
 809+ 989A
 810+ 989A                  ; Solo si estamos marcados como conectados y UART libre
 811+ 989A 3A 5E 92         ld a, (Wifi.is_connected)
 812+ 989D A7               and a
 813+ 989E 28 24            jr z, .noHealthCheck
 814+ 98A0 3A 5F 92         ld a, (Wifi.uart_busy)
 815+ 98A3 A7               and a
 816+ 98A4 20 1E            jr nz, .noHealthCheck
 817+ 98A6
 818+ 98A6                  ; Silenciar log UART durante el health-check (evita spam de CWJAP?)
 819+ 98A6 CD 71 B4         call Uart.logReset
 820+ 98A9 3A 7C B4         ld a, (Uart.log_enabled)
 821+ 98AC F5               push af
 822+ 98AD AF               xor a
 823+ 98AE 32 7C B4         ld (Uart.log_enabled), a
 824+ 98B1 CD 64 8A         call Wifi.checkConnection
 825+ 98B4 F1               pop af
 826+ 98B5 32 7C B4         ld (Uart.log_enabled), a
 827+ 98B8 CD 71 B4         call Uart.logReset
 828+ 98BB 3A 5E 92         ld a, (Wifi.is_connected)
 829+ 98BE A7               and a
 830+ 98BF 20 03            jr nz, .noHealthCheck
 831+ 98C1 C3 C3 99         jp handleDisconnect
 832+ 98C4
 833+ 98C4              .noHealthCheck
 834+ 98C4
 835+ 98C4
 836+ 98C4                  ; Rescan pendiente tras pérdida de conexión (solo si UART libre)
 837+ 98C4 3A 4D B3         ld a, (force_rescan)
 838+ 98C7 A7               and a
 839+ 98C8 28 47            jr z, .noForceRescan
 840+ 98CA 3A 5F 92         ld a, (Wifi.uart_busy)
 841+ 98CD A7               and a
 842+ 98CE 20 41            jr nz, .noForceRescan
 843+ 98D0 AF               xor a
 844+ 98D1 32 4D B3         ld (force_rescan), a
 845+ 98D4
 846+ 98D4 CD F5 97         call hideCursor
 847+ 98D7 CD F3 8C         call Wifi.getList
 848+ 98DA CD 71 96         call clampOffsetToCount
 849+ 98DD
 850+ 98DD                  ; Ajustar cursor_position a la página actual (offset) y tamaño real
 851+ 98DD 3A 59 92         ld a, (Wifi.networks_count)
 852+ 98E0 A7               and a
 853+ 98E1 28 1E            jr z, .forceCursorZero
 854+ 98E3
 855+ 98E3                  ; remaining = count - offset
 856+ 98E3 3A 59 92         ld a, (Wifi.networks_count)
 857+ 98E6 47               ld b, a
 858+ 98E7 3A 43 B3         ld a, (offset)
 859+ 98EA 4F               ld c, a
 860+ 98EB 78               ld a, b
 861+ 98EC 91               sub c
 862+ 98ED                  ; limitar remaining a PER_PAGE
 863+ 98ED FE 0A            cp PER_PAGE
 864+ 98EF 38 02            jr c, .forceRemOk
 865+ 98F1 3E 0A            ld a, PER_PAGE
 866+ 98F3              .forceRemOk
 867+ 98F3 47               ld b, a                  ; B = elementos visibles en página (1..PER_PAGE)
 868+ 98F4
 869+ 98F4 3A 42 B3         ld a, (cursor_position)
 870+ 98F7 B8               cp b
 871+ 98F8 38 0B            jr c, .forceCursorOk
 872+ 98FA 78               ld a, b
 873+ 98FB 3D               dec a
 874+ 98FC 32 42 B3         ld (cursor_position), a
 875+ 98FF 18 04            jr .forceCursorOk
 876+ 9901              .forceCursorZero
 877+ 9901 AF               xor a
 878+ 9902 32 42 B3         ld (cursor_position), a
 879+ 9905              .forceCursorOk
 880+ 9905
 881+ 9905 CD 31 96         call showScrollIndicators
 882+ 9908 CD 58 B0         call showPageInfo
 883+ 990B CD 95 94         call renderNetworksOnly
 884+ 990E CD 00 98         call showCursor
 885+ 9911              .noForceRescan
 886+ 9911
 887+ 9911 CD 35 B5         call Keyboard.inKeyNoWait
 888+ 9914 A7               and a
 889+ 9915 28 70            jr z, .noKey
 890+ 9917
 891+ 9917                  ; Resetear contador cuando hay actividad del usuario
 892+ 9917 21 00 00         ld hl, 0
 893+ 991A 22 49 B3         ld (autoscan_counter), hl
 894+ 991D 22 4B B3         ld (health_counter), hl
 895+ 9920
 896+ 9920 FE 0B            cp Keyboard.KEY_UP
 896+ 9922 CA 7A A1       jp z, cursorUp
 897+ 9925 FE 71            cp 'q'
 897+ 9927 CA 7A A1       jp z, cursorUp
 898+ 992A FE 0A            cp Keyboard.KEY_DN
 898+ 992C CA 3F A1       jp z, cursorDown
 899+ 992F FE 61            cp 'a'
 899+ 9931 CA 3F A1       jp z, cursorDown
 900+ 9934
 901+ 9934 FE 6F            cp 'o'
 901+ 9936 CA F5 A1       jp z, pageUp
 902+ 9939 FE 4F            cp 'O'
 902+ 993B CA F5 A1       jp z, pageUp
 903+ 993E FE 70            cp 'p'
 903+ 9940 CA A5 A1       jp z, pageDown
 904+ 9943 FE 50            cp 'P'
 904+ 9945 CA A5 A1       jp z, pageDown
 905+ 9948
 906+ 9948 FE 72            cp 'r'
 906+ 994A CA DD 99       jp z, rescan
 907+ 994D FE 52            cp 'R'
 907+ 994F CA DD 99       jp z, rescan
 908+ 9952 FE 73            cp 's'
 908+ 9954 CA 69 9A       jp z, sortBySignal
 909+ 9957 FE 53            cp 'S'
 909+ 9959 CA 69 9A       jp z, sortBySignal
 910+ 995C FE 64            cp 'd'
 910+ 995E CA 10 A7       jp z, showDiagnostics
 911+ 9961 FE 44            cp 'D'
 911+ 9963 CA 10 A7       jp z, showDiagnostics
 912+ 9966 FE 68            cp 'h'
 912+ 9968 CA 00 9B       jp z, manualSSID
 913+ 996B FE 48            cp 'H'
 913+ 996D CA 00 9B       jp z, manualSSID
 914+ 9970 FE 78            cp 'x'
 914+ 9972 CA 7C 9A       jp z, doDisconnect
 915+ 9975 FE 58            cp 'X'
 915+ 9977 CA 7C 9A       jp z, doDisconnect
 916+ 997A
 917+ 997A FE 0F            cp 15
 917+ 997C CA 3A A1       jp z, exitProgram     ; ESC
 918+ 997F FE 0D            cp 13
 918+ 9981 CA 34 A2       jp z, selectItem      ; ENTER
 919+ 9984
 920+ 9984 C3 6C 98         jp uiLoopMain
 921+ 9987
 922+ 9987              .noKey:
 923+ 9987 3A 48 B3         ld a, (ui_async_div)
 924+ 998A 3C               inc a
 925+ 998B 32 48 B3         ld (ui_async_div), a
 926+ 998E FE 04            cp 4                           ; 4 frames ≈ 80 ms
 927+ 9990 C2 6C 98         jp nz, uiLoopMain
 928+ 9993 AF               xor a
 929+ 9994 32 48 B3         ld (ui_async_div), a
 930+ 9997 CD 93 AF         call checkAsyncWifi
 931+ 999A                  ; A = código de evento
 932+ 999A A7               and a
 933+ 999B CA 6C 98         jp z, uiLoopMain               ; Sin evento
 934+ 999E FE 01            cp ASYNC_EVENT_DISCONNECT
 935+ 99A0 28 21            jr z, handleDisconnect
 936+ 99A2 FE 02            cp ASYNC_EVENT_GOTIP
 937+ 99A4 28 23            jr z, handleGotIP
 938+ 99A6 C3 6C 98         jp uiLoopMain
 939+ 99A9
 940+ 99A9              ; ============================================
 941+ 99A9              ; doMarkDisconnected
 942+ 99A9              ;   Invalida estado WiFi, limpia SSID, actualiza estado/IP y avisa en log.
 943+ 99A9              ;   NO toca cursor ni repinta lista (lo decide el caller).
 944+ 99A9              ; ============================================
 945+ 99A9              doMarkDisconnected:
 946+ 99A9 AF               xor a
 947+ 99AA 32 5E 92         ld (Wifi.is_connected), a
 948+ 99AD 21 75 92         ld hl, Wifi.connected_ssid
 949+ 99B0 77               ld (hl), a
 950+ 99B1 3E 01            ld a, 1
 951+ 99B3 32 4D B3         ld (force_rescan), a
 952+ 99B6 CD 16 94         call setStatusDisconnected
 953+ 99B9 CD 4A 93         call ipShowNotConnected
 954+ 99BC 21 5B 94         ld hl, msg_conn_lost
 955+ 99BF CD 3B 80         call Display.putStrLog
 956+ 99C2 C9               ret
 957+ 99C3
 958+ 99C3              handleDisconnect
 959+ 99C3 CD A9 99         call doMarkDisconnected
 960+ 99C6 C3 6C 98         jp uiLoopMain
 961+ 99C9
 962+ 99C9              handleGotIP
 963+ 99C9 3E 01            ld a, 1
 964+ 99CB 32 5E 92         ld (Wifi.is_connected), a
 965+ 99CE CD 11 94         call setStatusConnected
 966+ 99D1 CD 53 93         call ipShowConnected         ; Actualizar IP en barra superior
 967+ 99D4                  ; Redibujar lista para aplicar atributo de red conectada
 968+ 99D4 CD 95 94         call renderNetworksOnly
 969+ 99D7 CD 00 98         call showCursor
 970+ 99DA C3 6C 98         jp uiLoopMain
 971+ 99DD
 972+ 99DD              rescan:
 973+ 99DD CD F5 97         call hideCursor
 974+ 99E0 AF               xor a
 974+ 99E1 32 42 B3       ld (cursor_position), a
 974+ 99E4 32 43 B3       ld (offset), a
 975+ 99E7
 976+ 99E7                  ; Limpiar zona izquierda de línea 17 (hasta columna 31) y mostrar "Scanning..."
 977+ 99E7                  gotoXY 0, 17
 977+ 99E7 21 00 11    >    ld hl, 0 or (17<<8)
 977+ 99EA 22 4C 82    >    ld (Display.coords), hl
 978+ 99ED 06 1F            ld b, 31
 979+ 99EF              .clrLine17
 980+ 99EF 3E 20            ld a, ' '
 981+ 99F1 C5               push bc
 982+ 99F2 CD 46 80         call Display.putC
 983+ 99F5 C1               pop bc
 984+ 99F6 10 F7            djnz .clrLine17
 985+ 99F8
 986+ 99F8 21 0D 9A         ld hl, .scanning_msg
 987+ 99FB CD 30 80         call Display.putStr
 988+ 99FE
 989+ 99FE                  ; Limpiar área de redes mientras escanea
 990+ 99FE CD 92 94         call clearNetworksArea
 991+ 9A01
 992+ 9A01 CD F3 8C         call Wifi.getList
 993+ 9A04 CD 30 98         call invalidateConnectedIfMissing
 994+ 9A07 CD 9A 94         call renderListOnly         ; Solo redibuja la lista, no la ayuda
 995+ 9A0A C3 68 98         jp uiLoop
 996+ 9A0D 53 63 61 6E  .scanning_msg db "Scanning...", 0
 996+ 9A11 6E 69 6E 67
 996+ 9A15 2E 2E 2E 00
 997+ 9A19
 998+ 9A19              ; ============================================
 999+ 9A19              ; doAutoRescan - Rescan automático silencioso
1000+ 9A19              ; No mueve cursor ni muestra mensajes
1001+ 9A19              ; ============================================
1002+ 9A19              doAutoRescan:
1003+ 9A19 F5               push af
1004+ 9A1A C5               push bc
1005+ 9A1B D5               push de
1006+ 9A1C E5               push hl
1007+ 9A1D
1008+ 9A1D                  ; Guardar posición actual
1009+ 9A1D 3A 42 B3         ld a, (cursor_position)
1010+ 9A20 47               ld b, a
1011+ 9A21 3A 43 B3         ld a, (offset)
1012+ 9A24 4F               ld c, a
1013+ 9A25 C5               push bc
1014+ 9A26
1015+ 9A26 CD F5 97         call hideCursor
1016+ 9A29 CD F3 8C         call Wifi.getList
1017+ 9A2C
1018+ 9A2C                  ; Restaurar posición (ajustando si es necesario)
1019+ 9A2C C1               pop bc
1020+ 9A2D 3A 59 92         ld a, (Wifi.networks_count)
1021+ 9A30 A7               and a
1022+ 9A31 28 27            jr z, .autoResetPos         ; Sin redes, resetear
1023+ 9A33
1024+ 9A33                  ; Verificar que offset sigue siendo válido
1025+ 9A33 79               ld a, c                     ; offset guardado
1026+ 9A34 57               ld d, a
1027+ 9A35 3A 59 92         ld a, (Wifi.networks_count)
1028+ 9A38 BA               cp d
1029+ 9A39 30 02            jr nc, .autoOffsetOK
1030+ 9A3B                  ; offset >= count, resetear
1031+ 9A3B 18 1D            jr .autoResetPos
1032+ 9A3D
1033+ 9A3D              .autoOffsetOK
1034+ 9A3D 79               ld a, c
1035+ 9A3E 32 43 B3         ld (offset), a
1036+ 9A41
1037+ 9A41                  ; Verificar que cursor sigue siendo válido
1038+ 9A41 3A 59 92         ld a, (Wifi.networks_count)
1039+ 9A44 5F               ld e, a
1040+ 9A45 79               ld a, c                     ; offset
1041+ 9A46 57               ld d, a
1042+ 9A47 7B               ld a, e
1043+ 9A48 92               sub d                       ; count - offset = disponibles
1044+ 9A49 FE 0A            cp PER_PAGE
1045+ 9A4B 38 02            jr c, .autoLimitCursor
1046+ 9A4D 3E 0A            ld a, PER_PAGE
1047+ 9A4F              .autoLimitCursor
1048+ 9A4F                  ; A = máximo cursor permitido
1049+ 9A4F 3D               dec a                       ; 0-indexed
1050+ 9A50 B8               cp b                        ; comparar con cursor guardado
1051+ 9A51 30 01            jr nc, .autoCursorOK
1052+ 9A53                  ; cursor > max, ajustar
1053+ 9A53 47               ld b, a
1054+ 9A54              .autoCursorOK
1055+ 9A54 78               ld a, b
1056+ 9A55 32 42 B3         ld (cursor_position), a
1057+ 9A58 18 07            jr .autoRender
1058+ 9A5A
1059+ 9A5A              .autoResetPos
1060+ 9A5A AF               xor a
1061+ 9A5B 32 42 B3         ld (cursor_position), a
1062+ 9A5E 32 43 B3         ld (offset), a
1063+ 9A61
1064+ 9A61              .autoRender
1065+ 9A61 CD 9A 94         call renderListOnly
1066+ 9A64
1067+ 9A64 E1               pop hl
1068+ 9A65 D1               pop de
1069+ 9A66 C1               pop bc
1070+ 9A67 F1               pop af
1071+ 9A68 C9               ret
1072+ 9A69
1073+ 9A69              ; ============================================
1074+ 9A69              ; sortBySignal - Ordena redes por intensidad de señal
1075+ 9A69              ; ============================================
1076+ 9A69              sortBySignal:
1077+ 9A69 CD F5 97         call hideCursor
1078+ 9A6C AF               xor a
1078+ 9A6D 32 42 B3       ld (cursor_position), a
1078+ 9A70 32 43 B3       ld (offset), a
1079+ 9A73 CD C8 91         call Wifi.sortNetworks
1080+ 9A76 CD 9A 94         call renderListOnly         ; Solo redibuja la lista, no la ayuda
1081+ 9A79 C3 68 98         jp uiLoop
1082+ 9A7C
1083+ 9A7C              ; ============================================
1084+ 9A7C              ; doDisconnect - Desconectar de la red actual
1085+ 9A7C              ; ============================================
1086+ 9A7C              doDisconnect:
1087+ 9A7C                  ; Verificar si está conectado
1088+ 9A7C 3A 5E 92         ld a, (Wifi.is_connected)
1089+ 9A7F A7               and a
1090+ 9A80 CA 68 98         jp z, uiLoop                ; No conectado, ignorar
1091+ 9A83
1092+ 9A83 CD 8B 94         call topClean
1093+ 9A86                  gotoXY 1, 3
1093+ 9A86 21 01 03    >    ld hl, 1 or (3<<8)
1093+ 9A89 22 4C 82    >    ld (Display.coords), hl
1094+ 9A8C 21 CF 9A         ld hl, .msg_disconnecting
1095+ 9A8F CD 30 80         call Display.putStr
1096+ 9A92
1097+ 9A92                  ; Enviar comando de desconexión
1098+ 9A92 21 88 AF         ld hl, cmd_disconnect
1099+ 9A95 CD C9 8E         call Wifi.espSendZ
1100+ 9A98
1101+ 9A98                  ; Esperar respuesta
1102+ 9A98 06 64            ld b, 100
1103+ 9A9A              .waitDisconnect
1104+ 9A9A 76               halt
1105+ 9A9B 10 FD            djnz .waitDisconnect
1106+ 9A9D CD 8A 8B         call Wifi.flushInput
1107+ 9AA0
1108+ 9AA0                  ; Actualizar estado
1109+ 9AA0 AF               xor a
1110+ 9AA1 32 5E 92         ld (Wifi.is_connected), a
1111+ 9AA4 CD 6E 94         call updateWifiStatus
1112+ 9AA7 CD 4A 93         call ipShowNotConnected
1113+ 9AAA
1114+ 9AAA                  ; Mostrar confirmación
1115+ 9AAA                  gotoXY 1, 5
1115+ 9AAA 21 01 05    >    ld hl, 1 or (5<<8)
1115+ 9AAD 22 4C 82    >    ld (Display.coords), hl
1116+ 9AB0 21 E0 9A         ld hl, .msg_disconnected
1117+ 9AB3 CD 30 80         call Display.putStr
1118+ 9AB6                  gotoXY 1, 7
1118+ 9AB6 21 01 07    >    ld hl, 1 or (7<<8)
1118+ 9AB9 22 4C 82    >    ld (Display.coords), hl
1119+ 9ABC 21 43 B2         ld hl, msg_press_key
1120+ 9ABF CD 30 80         call Display.putStr
1121+ 9AC2
1122+ 9AC2              .waitDiscKey
1123+ 9AC2 76               halt
1124+ 9AC3 CD 2E B5         call Keyboard.inKey
1125+ 9AC6 A7               and a
1126+ 9AC7 28 F9            jr z, .waitDiscKey
1127+ 9AC9
1128+ 9AC9 CD 73 95         call renderList
1129+ 9ACC C3 68 98         jp uiLoop
1130+ 9ACF
1131+ 9ACF 44 69 73 63  .msg_disconnecting db "Disconnecting...", 0
1131+ 9AD3 6F 6E 6E 65
1131+ 9AD7 63 74 69 6E
1131+ 9ADB 67 2E 2E 2E
1131+ 9ADF 00
1132+ 9AE0 44 69 73 63  .msg_disconnected  db "Disconnected from WiFi network.", 0
1132+ 9AE4 6F 6E 6E 65
1132+ 9AE8 63 74 65 64
1132+ 9AEC 20 66 72 6F
1132+ 9AF0 6D 20 57 69
1132+ 9AF4 46 69 20 6E
1132+ 9AF8 65 74 77 6F
1132+ 9AFC 72 6B 2E 00
1133+ 9B00
1134+ 9B00              ; ============================================
1135+ 9B00              ; manualSSID - Introducir SSID manualmente
1136+ 9B00              ; ============================================
1137+ 9B00              manualSSID:
1138+ 9B00 CD F5 97         call hideCursor
1139+ 9B03 CD 8B 94         call topClean
1140+ 9B06
1141+ 9B06                  ; Limpiar buffer de SSID manual
1142+ 9B06 21 17 A1         ld hl, manual_ssid_buffer
1143+ 9B09 06 21            ld b, 33
1144+ 9B0B AF               xor a
1145+ 9B0C              .clearSSID
1146+ 9B0C 77               ld (hl), a
1147+ 9B0D 23               inc hl
1148+ 9B0E 10 FC            djnz .clearSSID
1149+ 9B10 AF               xor a
1150+ 9B11 32 38 A1         ld (manual_ssid_len), a
1151+ 9B14 32 39 A1         ld (manual_ssid_cursor), a
1152+ 9B17
1153+ 9B17                  ; Mostrar título
1154+ 9B17                  gotoXY 0, 3
1154+ 9B17 21 00 03    >    ld hl, 0 or (3<<8)
1154+ 9B1A 22 4C 82    >    ld (Display.coords), hl
1155+ 9B1D 21 E6 A0         ld hl, .msg_manual_title
1156+ 9B20 CD 30 80         call Display.putStr
1157+ 9B23
1158+ 9B23                  gotoXY 0, 5
1158+ 9B23 21 00 05    >    ld hl, 0 or (5<<8)
1158+ 9B26 22 4C 82    >    ld (Display.coords), hl
1159+ 9B29 21 03 A1         ld hl, .msg_enter_ssid
1160+ 9B2C CD 30 80         call Display.putStr
1161+ 9B2F
1162+ 9B2F                  ; Mostrar mensaje de cancelación
1163+ 9B2F                  gotoXY 0, 8
1163+ 9B2F 21 00 08    >    ld hl, 0 or (8<<8)
1163+ 9B32 22 4C 82    >    ld (Display.coords), hl
1164+ 9B35 21 DE 9C         ld hl, .msg_ssid_help
1165+ 9B38 CD 30 80         call Display.putStr
1166+ 9B3B
1167+ 9B3B                  setLineColor 6, 171o
1167+ 9B3B 3E 06 0E 79 >    ld a, 6, c, 171o
1167+ 9B3F CD 03 80    >    call Display.setAttr
1168+ 9B42
1169+ 9B42              ; Repintado completo de SSID (para cursor left)
1170+ 9B42              .drawSSIDFull
1171+ 9B42                  gotoXY 1, 6
1171+ 9B42 21 01 06    >    ld hl, 1 or (6<<8)
1171+ 9B45 22 4C 82    >    ld (Display.coords), hl
1172+ 9B48                  ; Limpiar línea completa
1173+ 9B48 06 22            ld b, 34
1174+ 9B4A              .clearSSIDFull
1175+ 9B4A 3E 20            ld a, ' '
1176+ 9B4C C5               push bc
1177+ 9B4D CD 46 80         call Display.putC
1178+ 9B50 C1               pop bc
1179+ 9B51 10 F7            djnz .clearSSIDFull
1180+ 9B53
1181+ 9B53                  gotoXY 1, 6
1181+ 9B53 21 01 06    >    ld hl, 1 or (6<<8)
1181+ 9B56 22 4C 82    >    ld (Display.coords), hl
1182+ 9B59
1183+ 9B59                  ; Chars antes del cursor
1184+ 9B59 3A 39 A1         ld a, (manual_ssid_cursor)
1185+ 9B5C A7               and a
1186+ 9B5D 28 0F            jr z, .ssidFullCursor
1187+ 9B5F
1188+ 9B5F 47               ld b, a
1189+ 9B60 21 17 A1         ld hl, manual_ssid_buffer
1190+ 9B63              .ssidFullBefore
1191+ 9B63 C5               push bc
1192+ 9B64 E5               push hl
1193+ 9B65 7E               ld a, (hl)
1194+ 9B66 CD 46 80         call Display.putC
1195+ 9B69 E1               pop hl
1196+ 9B6A 23               inc hl
1197+ 9B6B C1               pop bc
1198+ 9B6C 10 F5            djnz .ssidFullBefore
1199+ 9B6E
1200+ 9B6E              .ssidFullCursor
1201+ 9B6E 3E DB            ld a, 219
1202+ 9B70 CD 46 80         call Display.putC
1203+ 9B73
1204+ 9B73                  ; Chars después del cursor
1205+ 9B73 3A 38 A1         ld a, (manual_ssid_len)
1206+ 9B76 47               ld b, a
1207+ 9B77 3A 39 A1         ld a, (manual_ssid_cursor)
1208+ 9B7A B8               cp b
1209+ 9B7B 30 6C            jr nc, .waitSSIDKey
1210+ 9B7D
1211+ 9B7D 4F               ld c, a
1212+ 9B7E 78               ld a, b
1213+ 9B7F 91               sub c
1214+ 9B80 28 67            jr z, .waitSSIDKey
1215+ 9B82 47               ld b, a
1216+ 9B83
1217+ 9B83 3A 39 A1         ld a, (manual_ssid_cursor)
1218+ 9B86 21 17 A1         ld hl, manual_ssid_buffer
1219+ 9B89 16 00            ld d, 0
1220+ 9B8B 5F               ld e, a
1221+ 9B8C 19               add hl, de
1222+ 9B8D
1223+ 9B8D              .ssidFullAfter
1224+ 9B8D C5               push bc
1225+ 9B8E E5               push hl
1226+ 9B8F 7E               ld a, (hl)
1227+ 9B90 CD 46 80         call Display.putC
1228+ 9B93 E1               pop hl
1229+ 9B94 23               inc hl
1230+ 9B95 C1               pop bc
1231+ 9B96 10 F5            djnz .ssidFullAfter
1232+ 9B98 18 4F            jr .waitSSIDKey
1233+ 9B9A
1234+ 9B9A              ; Repintado parcial de SSID (desde cursor, para insertar/borrar)
1235+ 9B9A              .drawSSID
1236+ 9B9A                  ; Posicionar al inicio de la línea
1237+ 9B9A                  gotoXY 1, 6
1237+ 9B9A 21 01 06    >    ld hl, 1 or (6<<8)
1237+ 9B9D 22 4C 82    >    ld (Display.coords), hl
1238+ 9BA0
1239+ 9BA0                  ; Dibujar caracteres antes del cursor
1240+ 9BA0 3A 39 A1         ld a, (manual_ssid_cursor)
1241+ 9BA3 A7               and a
1242+ 9BA4 28 0F            jr z, .ssidDrawCursor
1243+ 9BA6
1244+ 9BA6 47               ld b, a
1245+ 9BA7 21 17 A1         ld hl, manual_ssid_buffer
1246+ 9BAA              .ssidDrawBefore
1247+ 9BAA C5               push bc
1248+ 9BAB E5               push hl
1249+ 9BAC 7E               ld a, (hl)
1250+ 9BAD CD 46 80         call Display.putC
1251+ 9BB0 E1               pop hl
1252+ 9BB1 23               inc hl
1253+ 9BB2 C1               pop bc
1254+ 9BB3 10 F5            djnz .ssidDrawBefore
1255+ 9BB5
1256+ 9BB5              .ssidDrawCursor
1257+ 9BB5                  ; Dibujar cursor
1258+ 9BB5 3E DB            ld a, 219
1259+ 9BB7 CD 46 80         call Display.putC
1260+ 9BBA
1261+ 9BBA                  ; Chars después del cursor
1262+ 9BBA 3A 38 A1         ld a, (manual_ssid_len)
1263+ 9BBD 47               ld b, a
1264+ 9BBE 3A 39 A1         ld a, (manual_ssid_cursor)
1265+ 9BC1 B8               cp b
1266+ 9BC2 30 1B            jr nc, .ssidClearRest
1267+ 9BC4
1268+ 9BC4                  ; Cantidad = len - cursor
1269+ 9BC4 4F               ld c, a
1270+ 9BC5 78               ld a, b
1271+ 9BC6 91               sub c
1272+ 9BC7 28 16            jr z, .ssidClearRest
1273+ 9BC9 47               ld b, a
1274+ 9BCA
1275+ 9BCA                  ; HL = &buffer[cursor]
1276+ 9BCA 3A 39 A1         ld a, (manual_ssid_cursor)
1277+ 9BCD 21 17 A1         ld hl, manual_ssid_buffer
1278+ 9BD0 16 00            ld d, 0
1279+ 9BD2 5F               ld e, a
1280+ 9BD3 19               add hl, de
1281+ 9BD4
1282+ 9BD4              .ssidDrawAfter
1283+ 9BD4 C5               push bc
1284+ 9BD5 E5               push hl
1285+ 9BD6 7E               ld a, (hl)
1286+ 9BD7 CD 46 80         call Display.putC
1287+ 9BDA E1               pop hl
1288+ 9BDB 23               inc hl
1289+ 9BDC C1               pop bc
1290+ 9BDD 10 F5            djnz .ssidDrawAfter
1291+ 9BDF
1292+ 9BDF              .ssidClearRest
1293+ 9BDF                  ; Limpiar resto de línea (2-3 espacios para borrar residuos)
1294+ 9BDF 3E 20            ld a, ' '
1295+ 9BE1 CD 46 80         call Display.putC
1296+ 9BE4 3E 20            ld a, ' '
1297+ 9BE6 CD 46 80         call Display.putC
1298+ 9BE9
1299+ 9BE9              .waitSSIDKey
1300+ 9BE9 06 05            ld b, 5
1301+ 9BEB              .waitSSIDLoop
1302+ 9BEB 76               halt
1303+ 9BEC 10 FD            djnz .waitSSIDLoop
1304+ 9BEE
1305+ 9BEE CD 35 B5         call Keyboard.inKeyNoWait
1306+ 9BF1 A7               and a
1307+ 9BF2 28 F5            jr z, .waitSSIDKey
1308+ 9BF4
1309+ 9BF4                  ; Cancelar con EDIT
1310+ 9BF4 FE 07            cp 7
1310+ 9BF6 CA D1 9C       jp z, .cancelManual
1311+ 9BF9
1312+ 9BF9                  ; Cursor izquierda
1313+ 9BF9 FE 08            cp 8
1313+ 9BFB CA 6A 9C       jp z, .ssidCursorLeft
1314+ 9BFE
1315+ 9BFE                  ; Cursor derecha
1316+ 9BFE FE 09            cp 9
1316+ 9C00 CA 78 9C       jp z, .ssidCursorRight
1317+ 9C03
1318+ 9C03                  ; Borrar
1319+ 9C03 FE 0C            cp Keyboard.KEY_BS
1319+ 9C05 CA 8D 9C       jp z, .removeSSIDChar
1320+ 9C08
1321+ 9C08                  ; Enter = continuar a contraseña
1322+ 9C08 FE 0D            cp 13
1322+ 9C0A CA FB 9C       jp z, .ssidEntered
1323+ 9C0D
1324+ 9C0D                  ; Filtrar caracteres válidos (32-126)
1325+ 9C0D FE 20            cp 32
1325+ 9C0F DA E9 9B       jp c, .waitSSIDKey
1326+ 9C12 FE 7F            cp 127
1326+ 9C14 D2 E9 9B       jp nc, .waitSSIDKey
1327+ 9C17
1328+ 9C17                  ; === Insertar carácter ===
1329+ 9C17 4F               ld c, a                         ; Guardar char
1330+ 9C18 3A 38 A1         ld a, (manual_ssid_len)
1331+ 9C1B FE 20            cp 32                           ; Max 32 chars
1332+ 9C1D D2 E9 9B         jp nc, .waitSSIDKey
1333+ 9C20
1334+ 9C20                  ; Verificar si insertamos al final o en medio
1335+ 9C20 3A 39 A1         ld a, (manual_ssid_cursor)
1336+ 9C23 47               ld b, a
1337+ 9C24 3A 38 A1         ld a, (manual_ssid_len)
1338+ 9C27 B8               cp b
1339+ 9C28 28 1B            jr z, .ssidInsertAtEnd
1340+ 9C2A
1341+ 9C2A                  ; Insertar en medio: desplazar caracteres a la derecha
1342+ 9C2A 3A 38 A1         ld a, (manual_ssid_len)
1343+ 9C2D 47               ld b, a
1344+ 9C2E 3A 39 A1         ld a, (manual_ssid_cursor)
1345+ 9C31 5F               ld e, a
1346+ 9C32              .ssidShiftRight
1347+ 9C32 78               ld a, b
1348+ 9C33 BB               cp e
1349+ 9C34 28 0F            jr z, .ssidDoInsert
1350+ 9C36 05               dec b
1351+ 9C37 21 17 A1         ld hl, manual_ssid_buffer
1352+ 9C3A 16 00            ld d, 0
1353+ 9C3C D5               push de
1354+ 9C3D 58               ld e, b
1355+ 9C3E 19               add hl, de
1356+ 9C3F 7E               ld a, (hl)
1357+ 9C40 23               inc hl
1358+ 9C41 77               ld (hl), a
1359+ 9C42 D1               pop de
1360+ 9C43 18 ED            jr .ssidShiftRight
1361+ 9C45
1362+ 9C45              .ssidInsertAtEnd
1363+ 9C45              .ssidDoInsert
1364+ 9C45                  ; Insertar carácter
1365+ 9C45 3A 39 A1         ld a, (manual_ssid_cursor)
1366+ 9C48 21 17 A1         ld hl, manual_ssid_buffer
1367+ 9C4B 16 00            ld d, 0
1368+ 9C4D 5F               ld e, a
1369+ 9C4E 19               add hl, de
1370+ 9C4F 71               ld (hl), c
1371+ 9C50
1372+ 9C50                  ; Incrementar longitud
1373+ 9C50 3A 38 A1         ld a, (manual_ssid_len)
1374+ 9C53 3C               inc a
1375+ 9C54 32 38 A1         ld (manual_ssid_len), a
1376+ 9C57
1377+ 9C57                  ; Poner null terminator
1378+ 9C57 21 17 A1         ld hl, manual_ssid_buffer
1379+ 9C5A 16 00            ld d, 0
1380+ 9C5C 5F               ld e, a
1381+ 9C5D 19               add hl, de
1382+ 9C5E AF               xor a
1383+ 9C5F 77               ld (hl), a
1384+ 9C60
1385+ 9C60                  ; Incrementar cursor
1386+ 9C60 3A 39 A1         ld a, (manual_ssid_cursor)
1387+ 9C63 3C               inc a
1388+ 9C64 32 39 A1         ld (manual_ssid_cursor), a
1389+ 9C67 C3 9A 9B         jp .drawSSID
1390+ 9C6A
1391+ 9C6A              .ssidCursorLeft
1392+ 9C6A 3A 39 A1         ld a, (manual_ssid_cursor)
1393+ 9C6D A7               and a
1394+ 9C6E CA E9 9B         jp z, .waitSSIDKey
1395+ 9C71 3D               dec a
1396+ 9C72 32 39 A1         ld (manual_ssid_cursor), a
1397+ 9C75 C3 9A 9B         jp .drawSSID                ; Usar repintado parcial (no Full)
1398+ 9C78
1399+ 9C78              .ssidCursorRight
1400+ 9C78 3A 39 A1         ld a, (manual_ssid_cursor)
1401+ 9C7B 47               ld b, a
1402+ 9C7C 3A 38 A1         ld a, (manual_ssid_len)
1403+ 9C7F B8               cp b
1404+ 9C80 CA E9 9B         jp z, .waitSSIDKey
1405+ 9C83 3A 39 A1         ld a, (manual_ssid_cursor)
1406+ 9C86 3C               inc a
1407+ 9C87 32 39 A1         ld (manual_ssid_cursor), a
1408+ 9C8A C3 9A 9B         jp .drawSSID
1409+ 9C8D
1410+ 9C8D              .removeSSIDChar
1411+ 9C8D 3A 39 A1         ld a, (manual_ssid_cursor)
1412+ 9C90 A7               and a
1413+ 9C91 CA E9 9B         jp z, .waitSSIDKey
1414+ 9C94
1415+ 9C94                  ; Verificar si borramos al final o en medio
1416+ 9C94 3A 39 A1         ld a, (manual_ssid_cursor)
1417+ 9C97 47               ld b, a
1418+ 9C98 3A 38 A1         ld a, (manual_ssid_len)
1419+ 9C9B B8               cp b
1420+ 9C9C 28 19            jr z, .ssidDeleteAtEnd
1421+ 9C9E
1422+ 9C9E                  ; Borrar en medio: desplazar caracteres a la izquierda
1423+ 9C9E 3A 39 A1         ld a, (manual_ssid_cursor)
1424+ 9CA1 47               ld b, a
1425+ 9CA2 3A 38 A1         ld a, (manual_ssid_len)
1426+ 9CA5 4F               ld c, a
1427+ 9CA6              .ssidShiftLeft
1428+ 9CA6 78               ld a, b
1429+ 9CA7 B9               cp c
1430+ 9CA8 28 0D            jr z, .ssidFinishDelete
1431+ 9CAA 21 17 A1         ld hl, manual_ssid_buffer
1432+ 9CAD 16 00            ld d, 0
1433+ 9CAF 58               ld e, b
1434+ 9CB0 19               add hl, de
1435+ 9CB1 7E               ld a, (hl)
1436+ 9CB2 2B               dec hl
1437+ 9CB3 77               ld (hl), a
1438+ 9CB4 04               inc b
1439+ 9CB5 18 EF            jr .ssidShiftLeft
1440+ 9CB7
1441+ 9CB7              .ssidDeleteAtEnd
1442+ 9CB7              .ssidFinishDelete
1443+ 9CB7                  ; Decrementar longitud
1444+ 9CB7 3A 38 A1         ld a, (manual_ssid_len)
1445+ 9CBA 3D               dec a
1446+ 9CBB 32 38 A1         ld (manual_ssid_len), a
1447+ 9CBE
1448+ 9CBE                  ; Poner null terminator
1449+ 9CBE 21 17 A1         ld hl, manual_ssid_buffer
1450+ 9CC1 16 00            ld d, 0
1451+ 9CC3 5F               ld e, a
1452+ 9CC4 19               add hl, de
1453+ 9CC5 AF               xor a
1454+ 9CC6 77               ld (hl), a
1455+ 9CC7
1456+ 9CC7                  ; Decrementar cursor
1457+ 9CC7 3A 39 A1         ld a, (manual_ssid_cursor)
1458+ 9CCA 3D               dec a
1459+ 9CCB 32 39 A1         ld (manual_ssid_cursor), a
1460+ 9CCE C3 9A 9B         jp .drawSSID
1461+ 9CD1
1462+ 9CD1              .cancelManual
1463+ 9CD1                  setLineColor 6, 107o
1463+ 9CD1 3E 06 0E 47 >    ld a, 6, c, 107o
1463+ 9CD5 CD 03 80    >    call Display.setAttr
1464+ 9CD8 CD 73 95         call renderList
1465+ 9CDB C3 68 98         jp uiLoop
1466+ 9CDE
1467+ 9CDE 45 44 49 54  .msg_ssid_help db "EDIT=cancel, L/R=move cursor", 0
1467+ 9CE2 3D 63 61 6E
1467+ 9CE6 63 65 6C 2C
1467+ 9CEA 20 4C 2F 52
1467+ 9CEE 3D 6D 6F 76
1467+ 9CF2 65 20 63 75
1467+ 9CF6 72 73 6F 72
1467+ 9CFA 00
1468+ 9CFB
1469+ 9CFB              .ssidEntered
1470+ 9CFB                  ; Verificar que hay SSID
1471+ 9CFB 3A 38 A1         ld a, (manual_ssid_len)
1472+ 9CFE A7               and a
1473+ 9CFF CA E9 9B         jp z, .waitSSIDKey              ; SSID vacío, seguir esperando
1474+ 9D02
1475+ 9D02                  ; Ahora pedir contraseña
1476+ 9D02                  setLineColor 6, 107o
1476+ 9D02 3E 06 0E 47 >    ld a, 6, c, 107o
1476+ 9D06 CD 03 80    >    call Display.setAttr
1477+ 9D09 CD 8B 94         call topClean
1478+ 9D0C
1479+ 9D0C                  ; Mostrar SSID seleccionado
1480+ 9D0C                  gotoXY 0, 3
1480+ 9D0C 21 00 03    >    ld hl, 0 or (3<<8)
1480+ 9D0F 22 4C 82    >    ld (Display.coords), hl
1481+ 9D12 21 E6 B2         ld hl, msg_ssid
1482+ 9D15 CD 30 80         call Display.putStr
1483+ 9D18                  gotoXY 1, 4
1483+ 9D18 21 01 04    >    ld hl, 1 or (4<<8)
1483+ 9D1B 22 4C 82    >    ld (Display.coords), hl
1484+ 9D1E 21 17 A1         ld hl, manual_ssid_buffer
1485+ 9D21 CD 30 80         call Display.putStr
1486+ 9D24
1487+ 9D24                  ; Preparar entrada de contraseña
1488+ 9D24 AF               xor a
1489+ 9D25 32 44 B3         ld (is_open_network), a         ; Asumir red cerrada
1490+ 9D28 CD 76 94         call clearPassBuffer
1491+ 9D2B
1492+ 9D2B                  gotoXY 0, 6
1492+ 9D2B 21 00 06    >    ld hl, 0 or (6<<8)
1492+ 9D2E 22 4C 82    >    ld (Display.coords), hl
1493+ 9D31 21 F5 B2         ld hl, msg_pass
1494+ 9D34 CD 30 80         call Display.putStr
1495+ 9D37
1496+ 9D37                  setLineColor 4, 071o
1496+ 9D37 3E 04 0E 39 >    ld a, 4, c, 071o
1496+ 9D3B CD 03 80    >    call Display.setAttr
1496+ 9D3E                setLineColor 7, 171o
1496+ 9D3E 3E 07 0E 79 >    ld a, 7, c, 171o
1496+ 9D42 CD 03 80    >    call Display.setAttr
1497+ 9D45 AF               xor a
1498+ 9D46 32 45 B3         ld (show_password), a
1499+ 9D49 32 41 B3         ld (pass_cursor), a
1500+ 9D4C
1501+ 9D4C                  ; Usar el mismo código de entrada de contraseña
1502+ 9D4C C3 D3 9D         jp .drawPassManual
1503+ 9D4F
1504+ 9D4F              ; Repintado completo de contraseña (para toggle vis, cursor left)
1505+ 9D4F              .drawPassFull
1506+ 9D4F                  gotoXY 1, 7
1506+ 9D4F 21 01 07    >    ld hl, 1 or (7<<8)
1506+ 9D52 22 4C 82    >    ld (Display.coords), hl
1507+ 9D55 06 22            ld b, 34
1508+ 9D57              .clearPassFull
1509+ 9D57 3E 20            ld a, ' '
1510+ 9D59 C5               push bc
1511+ 9D5A CD 46 80         call Display.putC
1512+ 9D5D C1               pop bc
1513+ 9D5E 10 F7            djnz .clearPassFull
1514+ 9D60
1515+ 9D60                  gotoXY 1, 7
1515+ 9D60 21 01 07    >    ld hl, 1 or (7<<8)
1515+ 9D63 22 4C 82    >    ld (Display.coords), hl
1516+ 9D66
1517+ 9D66                  ; Chars antes del cursor
1518+ 9D66 3A 41 B3         ld a, (pass_cursor)
1519+ 9D69 A7               and a
1520+ 9D6A 28 23            jr z, .passFullCursor
1521+ 9D6C
1522+ 9D6C 47               ld b, a
1523+ 9D6D 21 16 B3         ld hl, pass_buffer
1524+ 9D70
1525+ 9D70 3A 45 B3         ld a, (show_password)
1526+ 9D73 A7               and a
1527+ 9D74 20 0E            jr nz, .passFullRealBefore
1528+ 9D76
1529+ 9D76              .passFullAsterBefore
1530+ 9D76 C5               push bc
1531+ 9D77 E5               push hl
1532+ 9D78 3E 2A            ld a, '*'
1533+ 9D7A CD 46 80         call Display.putC
1534+ 9D7D E1               pop hl
1535+ 9D7E 23               inc hl
1536+ 9D7F C1               pop bc
1537+ 9D80 10 F4            djnz .passFullAsterBefore
1538+ 9D82 18 0B            jr .passFullCursor
1539+ 9D84
1540+ 9D84              .passFullRealBefore
1541+ 9D84 C5               push bc
1542+ 9D85 E5               push hl
1543+ 9D86 7E               ld a, (hl)
1544+ 9D87 CD 46 80         call Display.putC
1545+ 9D8A E1               pop hl
1546+ 9D8B 23               inc hl
1547+ 9D8C C1               pop bc
1548+ 9D8D 10 F5            djnz .passFullRealBefore
1549+ 9D8F
1550+ 9D8F              .passFullCursor
1551+ 9D8F 3E DB            ld a, 219
1552+ 9D91 CD 46 80         call Display.putC
1553+ 9D94
1554+ 9D94                  ; Chars después del cursor
1555+ 9D94 3A 40 B3         ld a, (pass_len)
1556+ 9D97 47               ld b, a
1557+ 9D98 3A 41 B3         ld a, (pass_cursor)
1558+ 9D9B B8               cp b
1559+ 9D9C D2 4A 9E         jp nc, .waitKeyManual
1560+ 9D9F
1561+ 9D9F 4F               ld c, a
1562+ 9DA0 78               ld a, b
1563+ 9DA1 91               sub c
1564+ 9DA2 CA 4A 9E         jp z, .waitKeyManual
1565+ 9DA5 47               ld b, a
1566+ 9DA6
1567+ 9DA6 3A 41 B3         ld a, (pass_cursor)
1568+ 9DA9 21 16 B3         ld hl, pass_buffer
1569+ 9DAC 16 00            ld d, 0
1570+ 9DAE 5F               ld e, a
1571+ 9DAF 19               add hl, de
1572+ 9DB0
1573+ 9DB0 3A 45 B3         ld a, (show_password)
1574+ 9DB3 A7               and a
1575+ 9DB4 20 0F            jr nz, .passFullRealAfter
1576+ 9DB6
1577+ 9DB6              .passFullAsterAfter
1578+ 9DB6 C5               push bc
1579+ 9DB7 E5               push hl
1580+ 9DB8 3E 2A            ld a, '*'
1581+ 9DBA CD 46 80         call Display.putC
1582+ 9DBD E1               pop hl
1583+ 9DBE 23               inc hl
1584+ 9DBF C1               pop bc
1585+ 9DC0 10 F4            djnz .passFullAsterAfter
1586+ 9DC2 C3 4A 9E         jp .waitKeyManual
1587+ 9DC5
1588+ 9DC5              .passFullRealAfter
1589+ 9DC5 C5               push bc
1590+ 9DC6 E5               push hl
1591+ 9DC7 7E               ld a, (hl)
1592+ 9DC8 CD 46 80         call Display.putC
1593+ 9DCB E1               pop hl
1594+ 9DCC 23               inc hl
1595+ 9DCD C1               pop bc
1596+ 9DCE 10 F5            djnz .passFullRealAfter
1597+ 9DD0 C3 4A 9E         jp .waitKeyManual
1598+ 9DD3
1599+ 9DD3              ; Repintado parcial de contraseña (desde cursor)
1600+ 9DD3              .drawPassManual
1601+ 9DD3                  ; Posicionar al inicio de la línea
1602+ 9DD3                  gotoXY 1, 7
1602+ 9DD3 21 01 07    >    ld hl, 1 or (7<<8)
1602+ 9DD6 22 4C 82    >    ld (Display.coords), hl
1603+ 9DD9
1604+ 9DD9                  ; Dibujar caracteres antes del cursor
1605+ 9DD9 3A 41 B3         ld a, (pass_cursor)
1606+ 9DDC A7               and a
1607+ 9DDD 28 23            jr z, .passDrawCursor
1608+ 9DDF
1609+ 9DDF 47               ld b, a
1610+ 9DE0 21 16 B3         ld hl, pass_buffer
1611+ 9DE3
1612+ 9DE3 3A 45 B3         ld a, (show_password)
1613+ 9DE6 A7               and a
1614+ 9DE7 20 0E            jr nz, .passDrawRealBefore
1615+ 9DE9
1616+ 9DE9              .passDrawAsterBefore
1617+ 9DE9 C5               push bc
1618+ 9DEA E5               push hl
1619+ 9DEB 3E 2A            ld a, '*'
1620+ 9DED CD 46 80         call Display.putC
1621+ 9DF0 E1               pop hl
1622+ 9DF1 23               inc hl
1623+ 9DF2 C1               pop bc
1624+ 9DF3 10 F4            djnz .passDrawAsterBefore
1625+ 9DF5 18 0B            jr .passDrawCursor
1626+ 9DF7
1627+ 9DF7              .passDrawRealBefore
1628+ 9DF7 C5               push bc
1629+ 9DF8 E5               push hl
1630+ 9DF9 7E               ld a, (hl)
1631+ 9DFA CD 46 80         call Display.putC
1632+ 9DFD E1               pop hl
1633+ 9DFE 23               inc hl
1634+ 9DFF C1               pop bc
1635+ 9E00 10 F5            djnz .passDrawRealBefore
1636+ 9E02
1637+ 9E02              .passDrawCursor
1638+ 9E02                  ; Dibujar cursor
1639+ 9E02 3E DB            ld a, 219
1640+ 9E04 CD 46 80         call Display.putC
1641+ 9E07
1642+ 9E07                  ; Chars después del cursor
1643+ 9E07 3A 40 B3         ld a, (pass_len)
1644+ 9E0A 47               ld b, a
1645+ 9E0B 3A 41 B3         ld a, (pass_cursor)
1646+ 9E0E B8               cp b
1647+ 9E0F 30 2F            jr nc, .passClearRest
1648+ 9E11
1649+ 9E11 4F               ld c, a
1650+ 9E12 78               ld a, b
1651+ 9E13 91               sub c
1652+ 9E14 28 2A            jr z, .passClearRest
1653+ 9E16 47               ld b, a
1654+ 9E17
1655+ 9E17 3A 41 B3         ld a, (pass_cursor)
1656+ 9E1A 21 16 B3         ld hl, pass_buffer
1657+ 9E1D 16 00            ld d, 0
1658+ 9E1F 5F               ld e, a
1659+ 9E20 19               add hl, de
1660+ 9E21
1661+ 9E21 3A 45 B3         ld a, (show_password)
1662+ 9E24 A7               and a
1663+ 9E25 20 0E            jr nz, .passDrawRealAfter
1664+ 9E27
1665+ 9E27              .passDrawAsterAfter
1666+ 9E27 C5               push bc
1667+ 9E28 E5               push hl
1668+ 9E29 3E 2A            ld a, '*'
1669+ 9E2B CD 46 80         call Display.putC
1670+ 9E2E E1               pop hl
1671+ 9E2F 23               inc hl
1672+ 9E30 C1               pop bc
1673+ 9E31 10 F4            djnz .passDrawAsterAfter
1674+ 9E33 18 0B            jr .passClearRest
1675+ 9E35
1676+ 9E35              .passDrawRealAfter
1677+ 9E35 C5               push bc
1678+ 9E36 E5               push hl
1679+ 9E37 7E               ld a, (hl)
1680+ 9E38 CD 46 80         call Display.putC
1681+ 9E3B E1               pop hl
1682+ 9E3C 23               inc hl
1683+ 9E3D C1               pop bc
1684+ 9E3E 10 F5            djnz .passDrawRealAfter
1685+ 9E40
1686+ 9E40              .passClearRest
1687+ 9E40                  ; Limpiar resto de línea
1688+ 9E40 3E 20            ld a, ' '
1689+ 9E42 CD 46 80         call Display.putC
1690+ 9E45 3E 20            ld a, ' '
1691+ 9E47 CD 46 80         call Display.putC
1692+ 9E4A
1693+ 9E4A              .waitKeyManual
1694+ 9E4A 06 05            ld b, 5
1695+ 9E4C              .waitLoopManual
1696+ 9E4C 76               halt
1697+ 9E4D 10 FD            djnz .waitLoopManual
1698+ 9E4F
1699+ 9E4F CD 35 B5         call Keyboard.inKeyNoWait
1700+ 9E52 A7               and a
1701+ 9E53 28 F5            jr z, .waitKeyManual
1702+ 9E55
1703+ 9E55 FE 0B            cp Keyboard.KEY_UP
1703+ 9E57 CA F1 9E       jp z, .toggleVisManual
1704+ 9E5A FE 07            cp 7
1704+ 9E5C CA D1 9C       jp z, .cancelManual
1705+ 9E5F FE 08            cp 8
1705+ 9E61 CA CE 9E       jp z, .passCursorLeftManual      ; LEFT
1706+ 9E64 FE 09            cp 9
1706+ 9E66 CA DC 9E       jp z, .passCursorRightManual     ; RIGHT
1707+ 9E69 FE 0C            cp Keyboard.KEY_BS
1707+ 9E6B CA FC 9E       jp z, .removeCharManual
1708+ 9E6E FE 0D            cp 13
1708+ 9E70 CA 40 9F       jp z, .connectManual
1709+ 9E73 FE 20            cp 32
1709+ 9E75 38 D3          jr c, .waitKeyManual
1710+ 9E77 FE 7F            cp 127
1710+ 9E79 30 CF          jr nc, .waitKeyManual
1711+ 9E7B
1712+ 9E7B                  ; === Insertar carácter ===
1713+ 9E7B 4F               ld c, a                         ; Guardar char
1714+ 9E7C 3A 40 B3         ld a, (pass_len)
1715+ 9E7F FE 28            cp MAX_PASS_LEN
1716+ 9E81 D2 4A 9E         jp nc, .waitKeyManual
1717+ 9E84
1718+ 9E84                  ; Verificar si insertamos al final o en medio
1719+ 9E84 3A 41 B3         ld a, (pass_cursor)
1720+ 9E87 47               ld b, a
1721+ 9E88 3A 40 B3         ld a, (pass_len)
1722+ 9E8B B8               cp b
1723+ 9E8C 28 1B            jr z, .passInsertAtEndManual
1724+ 9E8E
1725+ 9E8E                  ; Insertar en medio: desplazar a la derecha
1726+ 9E8E 3A 40 B3         ld a, (pass_len)
1727+ 9E91 47               ld b, a
1728+ 9E92 3A 41 B3         ld a, (pass_cursor)
1729+ 9E95 5F               ld e, a
1730+ 9E96              .passShiftRightManual
1731+ 9E96 78               ld a, b
1732+ 9E97 BB               cp e
1733+ 9E98 28 0F            jr z, .passDoInsertManual
1734+ 9E9A 05               dec b
1735+ 9E9B 21 16 B3         ld hl, pass_buffer
1736+ 9E9E 16 00            ld d, 0
1737+ 9EA0 D5               push de
1738+ 9EA1 58               ld e, b
1739+ 9EA2 19               add hl, de
1740+ 9EA3 7E               ld a, (hl)
1741+ 9EA4 23               inc hl
1742+ 9EA5 77               ld (hl), a
1743+ 9EA6 D1               pop de
1744+ 9EA7 18 ED            jr .passShiftRightManual
1745+ 9EA9
1746+ 9EA9              .passInsertAtEndManual
1747+ 9EA9              .passDoInsertManual
1748+ 9EA9 3A 41 B3         ld a, (pass_cursor)
1749+ 9EAC 21 16 B3         ld hl, pass_buffer
1750+ 9EAF 16 00            ld d, 0
1751+ 9EB1 5F               ld e, a
1752+ 9EB2 19               add hl, de
1753+ 9EB3 71               ld (hl), c
1754+ 9EB4
1755+ 9EB4 3A 40 B3         ld a, (pass_len)
1756+ 9EB7 3C               inc a
1757+ 9EB8 32 40 B3         ld (pass_len), a
1758+ 9EBB
1759+ 9EBB 21 16 B3         ld hl, pass_buffer
1760+ 9EBE 16 00            ld d, 0
1761+ 9EC0 5F               ld e, a
1762+ 9EC1 19               add hl, de
1763+ 9EC2 AF               xor a
1764+ 9EC3 77               ld (hl), a
1765+ 9EC4
1766+ 9EC4 3A 41 B3         ld a, (pass_cursor)
1767+ 9EC7 3C               inc a
1768+ 9EC8 32 41 B3         ld (pass_cursor), a
1769+ 9ECB C3 D3 9D         jp .drawPassManual
1770+ 9ECE
1771+ 9ECE              .passCursorLeftManual
1772+ 9ECE 3A 41 B3         ld a, (pass_cursor)
1773+ 9ED1 A7               and a
1774+ 9ED2 CA 4A 9E         jp z, .waitKeyManual
1775+ 9ED5 3D               dec a
1776+ 9ED6 32 41 B3         ld (pass_cursor), a
1777+ 9ED9 C3 D3 9D         jp .drawPassManual          ; Usar repintado parcial
1778+ 9EDC
1779+ 9EDC              .passCursorRightManual
1780+ 9EDC 3A 41 B3         ld a, (pass_cursor)
1781+ 9EDF 47               ld b, a
1782+ 9EE0 3A 40 B3         ld a, (pass_len)
1783+ 9EE3 B8               cp b
1784+ 9EE4 CA 4A 9E         jp z, .waitKeyManual
1785+ 9EE7 3A 41 B3         ld a, (pass_cursor)
1786+ 9EEA 3C               inc a
1787+ 9EEB 32 41 B3         ld (pass_cursor), a
1788+ 9EEE C3 D3 9D         jp .drawPassManual
1789+ 9EF1
1790+ 9EF1              .toggleVisManual
1791+ 9EF1 3A 45 B3         ld a, (show_password)
1792+ 9EF4 EE 01            xor 1
1793+ 9EF6 32 45 B3         ld (show_password), a
1794+ 9EF9 C3 4F 9D         jp .drawPassFull            ; Repintado completo al cambiar visibilidad
1795+ 9EFC
1796+ 9EFC              .removeCharManual
1797+ 9EFC 3A 41 B3         ld a, (pass_cursor)
1798+ 9EFF A7               and a
1799+ 9F00 CA 4A 9E         jp z, .waitKeyManual
1800+ 9F03
1801+ 9F03                  ; Verificar si borramos al final o en medio
1802+ 9F03 3A 41 B3         ld a, (pass_cursor)
1803+ 9F06 47               ld b, a
1804+ 9F07 3A 40 B3         ld a, (pass_len)
1805+ 9F0A B8               cp b
1806+ 9F0B 28 19            jr z, .passDeleteAtEndManual
1807+ 9F0D
1808+ 9F0D                  ; Borrar en medio: desplazar a la izquierda
1809+ 9F0D 3A 41 B3         ld a, (pass_cursor)
1810+ 9F10 47               ld b, a
1811+ 9F11 3A 40 B3         ld a, (pass_len)
1812+ 9F14 4F               ld c, a
1813+ 9F15              .passShiftLeftManual
1814+ 9F15 78               ld a, b
1815+ 9F16 B9               cp c
1816+ 9F17 28 0D            jr z, .passFinishDeleteManual
1817+ 9F19 21 16 B3         ld hl, pass_buffer
1818+ 9F1C 16 00            ld d, 0
1819+ 9F1E 58               ld e, b
1820+ 9F1F 19               add hl, de
1821+ 9F20 7E               ld a, (hl)
1822+ 9F21 2B               dec hl
1823+ 9F22 77               ld (hl), a
1824+ 9F23 04               inc b
1825+ 9F24 18 EF            jr .passShiftLeftManual
1826+ 9F26
1827+ 9F26              .passDeleteAtEndManual
1828+ 9F26              .passFinishDeleteManual
1829+ 9F26 3A 40 B3         ld a, (pass_len)
1830+ 9F29 3D               dec a
1831+ 9F2A 32 40 B3         ld (pass_len), a
1832+ 9F2D
1833+ 9F2D 21 16 B3         ld hl, pass_buffer
1834+ 9F30 16 00            ld d, 0
1835+ 9F32 5F               ld e, a
1836+ 9F33 19               add hl, de
1837+ 9F34 AF               xor a
1838+ 9F35 77               ld (hl), a
1839+ 9F36
1840+ 9F36 3A 41 B3         ld a, (pass_cursor)
1841+ 9F39 3D               dec a
1842+ 9F3A 32 41 B3         ld (pass_cursor), a
1843+ 9F3D C3 D3 9D         jp .drawPassManual
1844+ 9F40
1845+ 9F40              .connectManual
1846+ 9F40                  ; Mostrar asteriscos finales
1847+ 9F40                  gotoXY 1, 7
1847+ 9F40 21 01 07    >    ld hl, 1 or (7<<8)
1847+ 9F43 22 4C 82    >    ld (Display.coords), hl
1848+ 9F46 3A 40 B3         ld a, (pass_len)
1849+ 9F49 A7               and a
1850+ 9F4A 28 0A            jr z, .noAsterManual
1851+ 9F4C 47               ld b, a
1852+ 9F4D              .showConnAsterManual
1853+ 9F4D C5               push bc
1854+ 9F4E 3E 2A            ld a, '*'
1855+ 9F50 CD 46 80         call Display.putC
1856+ 9F53 C1               pop bc
1857+ 9F54 10 F7            djnz .showConnAsterManual
1858+ 9F56              .noAsterManual
1859+ 9F56 3E 20            ld a, ' '
1859+ 9F58 CD 46 80       call Display.putC
1860+ 9F5B
1861+ 9F5B                  ; Inicializar reintentos
1862+ 9F5B 3E 03            ld a, 3
1863+ 9F5D 32 87 AF         ld (conn_retries), a
1864+ 9F60              ; Verificar estado previo
1865+ 9F60 3A 5E 92         ld a, (Wifi.is_connected)
1866+ 9F63 A7               and a
1867+ 9F64 28 0A            jr z, .skipUiUpdate
1868+ 9F66
1869+ 9F66                  ; Actualizar UI solo si estaba conectado
1870+ 9F66 AF               xor a
1871+ 9F67 32 5E 92         ld (Wifi.is_connected), a
1872+ 9F6A CD 6E 94         call updateWifiStatus
1873+ 9F6D CD 4A 93         call ipShowNotConnected
1874+ 9F70
1875+ 9F70              .skipUiUpdate
1876+ 9F70
1877+ 9F70 CD 8A 8B         call Wifi.flushInput
1878+ 9F73 21 88 AF         ld hl, cmd_disconnect
1879+ 9F76 CD C9 8E         call Wifi.espSendZ
1880+ 9F79 CD 55 8F         call Wifi.checkOkErr
1881+ 9F7C CD 8A 8B         call Wifi.flushInput
1882+ 9F7F
1883+ 9F7F              .connectRetryManual
1884+ 9F7F                  gotoXY 1, 10
1884+ 9F7F 21 01 0A    >    ld hl, 1 or (10<<8)
1884+ 9F82 22 4C 82    >    ld (Display.coords), hl
1885+ 9F85 06 1E            ld b, 30
1886+ 9F87              .clrConnLineManual
1887+ 9F87 3E 20            ld a, ' '
1888+ 9F89 C5               push bc
1889+ 9F8A CD 46 80         call Display.putC
1890+ 9F8D C1               pop bc
1891+ 9F8E 10 F7            djnz .clrConnLineManual
1892+ 9F90
1893+ 9F90                  gotoXY 1, 10
1893+ 9F90 21 01 0A    >    ld hl, 1 or (10<<8)
1893+ 9F93 22 4C 82    >    ld (Display.coords), hl
1894+ 9F96 3A 87 AF         ld a, (conn_retries)
1895+ 9F99 47               ld b, a
1896+ 9F9A 3E 04            ld a, 4
1897+ 9F9C 90               sub b
1898+ 9F9D C6 30            add a, '0'
1899+ 9F9F 32 6C B2         ld (msg_conn_attempt + 12), a
1900+ 9FA2 21 60 B2         ld hl, msg_conn_attempt
1901+ 9FA5 CD 30 80         call Display.putStr
1902+ 9FA8
1903+ 9FA8                  gotoXY 1, 12
1903+ 9FA8 21 01 0C    >    ld hl, 1 or (12<<8)
1903+ 9FAB 22 4C 82    >    ld (Display.coords), hl
1904+ 9FAE 21 7B B2         ld hl, msg_break_cancel
1905+ 9FB1 CD 30 80         call Display.putStr
1906+ 9FB4
1907+ 9FB4                  ; AT+CWJAP se envia en varias partes. Para evitar mezclar log y ocultar password,
1908+ 9FB4                  ; se mutea el log durante todo el envio.
1909+ 9FB4 21 CF A6         ld hl, selectItem.log_cwjap_masked
1910+ 9FB7 CD 3B 80         call Display.putStrLog
1911+ 9FBA CD 71 B4         call Uart.logReset
1912+ 9FBD AF               xor a
1912+ 9FBE 32 7C B4       ld (Uart.log_enabled), a
1913+ 9FC1
1914+ 9FC1                  ; Enviar comando de conexión con SSID manual
1915+ 9FC1 3A 5C 92         ld a, (Wifi.old_fw)
1915+ 9FC4 21 C8 B2       ld hl, at_start
1915+ 9FC7 B7             or a
1915+ 9FC8 28 03          jr z, .sendCmdManual
1915+ 9FCA 21 D3 B2       ld hl, at_start_old
1916+ 9FCD              .sendCmdManual
1917+ 9FCD CD C9 8E         call Wifi.espSendZ
1918+ 9FD0 21 17 A1         ld hl, manual_ssid_buffer       ; Usar SSID manual
1919+ 9FD3 CD C9 8E         call Wifi.espSendZ
1920+ 9FD6 21 E2 B2         ld hl, at_middle
1921+ 9FD9 CD C9 8E         call Wifi.espSendZ
1922+ 9FDC
1923+ 9FDC 21 16 B3         ld hl, pass_buffer
1923+ 9FDF CD C9 8E       call Wifi.espSendZ
1924+ 9FE2 3E 22            ld a, '"'
1924+ 9FE4 CD A7 B3       call Uart.write
1925+ 9FE7 3E 0D            ld a, 13
1925+ 9FE9 CD A7 B3       call Uart.write
1926+ 9FEC 3E 0A            ld a, 10
1926+ 9FEE CD A7 B3       call Uart.write
1927+ 9FF1
1928+ 9FF1 CD 5E 8F         call Wifi.checkOkErrLong
1929+ 9FF4
1930+ 9FF4 F5               push af
1931+ 9FF5 3E 01            ld a, 1
1931+ 9FF7 32 7C B4       ld (Uart.log_enabled), a
1932+ 9FFA                  ; Añadir salto de línea al log para separar del comando anterior
1933+ 9FFA 21 EE A6         ld hl, selectItem.log_newline
1934+ 9FFD CD 3B 80         call Display.putStrLog
1935+ A000 F1               pop af
1936+ A001
1937+ A001 30 2E            jr nc, .connSuccessManual
1938+ A003
1939+ A003                  ; Fallo - mostrar "Retry" junto al mensaje actual (línea 10, después de "Connecting (x/3)...")
1940+ A003                  gotoXY 20, 10
1940+ A003 21 14 0A    >    ld hl, 20 or (10<<8)
1940+ A006 22 4C 82    >    ld (Display.coords), hl
1941+ A009 21 74 B2         ld hl, msg_retry_suffix
1942+ A00C CD 30 80         call Display.putStr
1943+ A00F
1944+ A00F                  ; Verificar si quedan reintentos
1945+ A00F 3A 87 AF         ld a, (conn_retries)
1946+ A012 3D               dec a
1947+ A013 32 87 AF         ld (conn_retries), a
1948+ A016 CA 7C A0         jp z, .connFailedManual
1949+ A019
1950+ A019 06 64            ld b, 100
1951+ A01B              .retryWaitManual
1952+ A01B 76               halt
1953+ A01C C5               push bc
1954+ A01D CD 20 B5         call Keyboard.checkBreak
1955+ A020 C1               pop bc
1956+ A021 28 05            jr z, .breakPressedManual
1957+ A023 10 F6            djnz .retryWaitManual
1958+ A025
1959+ A025 C3 7F 9F         jp .connectRetryManual
1960+ A028
1961+ A028              .breakPressedManual
1962+ A028 CD 8A 8B         call Wifi.flushInput
1963+ A02B CD 73 95         call renderList
1964+ A02E C3 68 98         jp uiLoop
1965+ A031
1966+ A031              .connSuccessManual
1967+ A031 3E 01            ld a, 1
1967+ A033 32 5E 92       ld (Wifi.is_connected), a
1968+ A036 CD 6E 94         call updateWifiStatus
1969+ A039                  ifdef ESXCOMPAT
1970+ A039 ~                call Compat.iwConfig
1971+ A039                  endif
1972+ A039 CD 8B 94         call topClean
1973+ A03C 06 32            ld b, 50
1974+ A03E              .ipDelayManual
1975+ A03E 76               halt
1976+ A03F 10 FD            djnz .ipDelayManual
1977+ A041 CD 53 93         call ipShowConnected
1978+ A044                  setLineColor 4, 107o
1978+ A044 3E 04 0E 47 >    ld a, 4, c, 107o
1978+ A048 CD 03 80    >    call Display.setAttr
1978+ A04B                setLineColor 7, 107o
1978+ A04B 3E 07 0E 47 >    ld a, 7, c, 107o
1978+ A04F CD 03 80    >    call Display.setAttr
1979+ A052                  gotoXY 0, 3
1979+ A052 21 00 03    >    ld hl, 0 or (3<<8)
1979+ A055 22 4C 82    >    ld (Display.coords), hl
1979+ A058 21 3F B1       ld hl, msg_done
1979+ A05B CD 30 80       call Display.putStr
1980+ A05E                  gotoXY 0, 7
1980+ A05E 21 00 07    >    ld hl, 0 or (7<<8)
1980+ A061 22 4C 82    >    ld (Display.coords), hl
1980+ A064 21 43 B2       ld hl, msg_press_key
1980+ A067 CD 30 80       call Display.putStr
1981+ A06A              .waitSuccessManual
1982+ A06A 76               halt
1982+ A06B CD 2E B5       call Keyboard.inKey
1982+ A06E A7             and a
1982+ A06F 28 F9          jr z, .waitSuccessManual
1983+ A071 FE 0F            cp 15
1983+ A073 CA 3A A1       jp z, exitProgram
1984+ A076 CD 73 95         call renderList
1984+ A079 C3 68 98       jp uiLoop
1985+ A07C
1986+ A07C              .connFailedManual
1987+ A07C CD F0 A6         call tryRecoverESP
1988+ A07F AF               xor a
1988+ A080 32 5E 92       ld (Wifi.is_connected), a
1989+ A083 CD 6E 94         call updateWifiStatus
1990+ A086 CD 4A 93         call ipShowNotConnected
1991+ A089 CD 8B 94         call topClean
1992+ A08C                  setLineColor 4, 107o
1992+ A08C 3E 04 0E 47 >    ld a, 4, c, 107o
1992+ A090 CD 03 80    >    call Display.setAttr
1992+ A093                setLineColor 7, 107o
1992+ A093 3E 07 0E 47 >    ld a, 7, c, 107o
1992+ A097 CD 03 80    >    call Display.setAttr
1993+ A09A                  gotoXY 0, 3
1993+ A09A 21 00 03    >    ld hl, 0 or (3<<8)
1993+ A09D 22 4C 82    >    ld (Display.coords), hl
1994+ A0A0 3A AA 90         ld a, (Wifi.last_error)
1995+ A0A3 FE 01            cp 1
1995+ A0A5 28 11          jr z, .errTimeoutManual
1996+ A0A7 FE 02            cp 2
1996+ A0A9 28 12          jr z, .errPasswordManual
1997+ A0AB FE 03            cp 3
1997+ A0AD 28 13          jr z, .errNotFoundManual
1998+ A0AF FE 04            cp 4
1998+ A0B1 28 14          jr z, .errConnFailManual
1999+ A0B3 21 6A B1         ld hl, msg_fail_generic
2000+ A0B6 18 12            jr .showFailMsgManual
2001+ A0B8              .errTimeoutManual
2002+ A0B8 21 8D B1         ld hl, msg_fail_timeout
2003+ A0BB 18 0D            jr .showFailMsgManual
2004+ A0BD              .errPasswordManual
2005+ A0BD 21 B9 B1         ld hl, msg_fail_password
2006+ A0C0 18 08            jr .showFailMsgManual
2007+ A0C2              .errNotFoundManual
2008+ A0C2 21 E8 B1         ld hl, msg_fail_notfound
2009+ A0C5 18 03            jr .showFailMsgManual
2010+ A0C7              .errConnFailManual
2011+ A0C7 21 14 B2         ld hl, msg_fail_connfail
2012+ A0CA              .showFailMsgManual
2013+ A0CA CD 30 80         call Display.putStr
2014+ A0CD                  gotoXY 0, 7
2014+ A0CD 21 00 07    >    ld hl, 0 or (7<<8)
2014+ A0D0 22 4C 82    >    ld (Display.coords), hl
2014+ A0D3 21 43 B2       ld hl, msg_press_key
2014+ A0D6 CD 30 80       call Display.putStr
2015+ A0D9              .waitFailManual
2016+ A0D9 76               halt
2016+ A0DA CD 2E B5       call Keyboard.inKey
2016+ A0DD A7             and a
2016+ A0DE 28 F9          jr z, .waitFailManual
2017+ A0E0 CD 73 95         call renderList
2017+ A0E3 C3 68 98       jp uiLoop
2018+ A0E6
2019+ A0E6 48 69 64 64  .msg_manual_title db "Hidden Network (Manual SSID)", 0
2019+ A0EA 65 6E 20 4E
2019+ A0EE 65 74 77 6F
2019+ A0F2 72 6B 20 28
2019+ A0F6 4D 61 6E 75
2019+ A0FA 61 6C 20 53
2019+ A0FE 53 49 44 29
2019+ A102 00
2020+ A103 45 6E 74 65  .msg_enter_ssid   db "Enter network SSID:", 0
2020+ A107 72 20 6E 65
2020+ A10B 74 77 6F 72
2020+ A10F 6B 20 53 53
2020+ A113 49 44 3A 00
2021+ A117
2022+ A117 00 00 00...  manual_ssid_buffer ds 33
2023+ A138 00           manual_ssid_len    db 0
2024+ A139 00           manual_ssid_cursor db 0
2025+ A13A
2026+ A13A              exitProgram:
2027+ A13A CD B6 81         call Display.clrscr
2027+ A13D FB             ei
2027+ A13E C9             ret
2028+ A13F
2029+ A13F              cursorDown:
2030+ A13F CD F5 97         call hideCursor
2031+ A142                  ; Verificar si hay más redes debajo
2032+ A142 3A 42 B3         ld a, (cursor_position)
2033+ A145 21 43 B3         ld hl, offset
2034+ A148 86               add a, (hl)
2035+ A149 3C               inc a                       ; Siguiente posición absoluta
2036+ A14A 21 59 92         ld hl, Wifi.networks_count
2037+ A14D BE               cp (hl)                     ; ¿Hay más redes?
2038+ A14E D2 74 A1         jp nc, .atEnd               ; No hay más, no mover
2039+ A151
2040+ A151 3A 42 B3         ld a, (cursor_position)
2041+ A154 3C               inc a
2042+ A155 FE 0A            cp PER_PAGE
2043+ A157 38 18            jr c, .store                ; Dentro de la página
2044+ A159
2045+ A159                  ; Scroll down: verificar que hay más redes
2046+ A159 3A 43 B3         ld a, (offset)
2047+ A15C C6 0A            add a, PER_PAGE
2048+ A15E 21 59 92         ld hl, Wifi.networks_count
2049+ A161 BE               cp (hl)
2050+ A162 30 10            jr nc, .atEnd               ; No hay más páginas
2051+ A164
2052+ A164 32 43 B3         ld (offset), a
2053+ A167 AF               xor a
2053+ A168 32 42 B3       ld (cursor_position), a
2054+ A16B CD 73 95         call renderList
2055+ A16E C3 68 98         jp uiLoop
2056+ A171
2057+ A171              .store
2058+ A171 32 42 B3         ld (cursor_position), a
2059+ A174              .atEnd
2060+ A174 CD 00 98         call showCursor
2061+ A177 C3 68 98         jp uiLoop
2062+ A17A
2063+ A17A              cursorUp:
2064+ A17A CD F5 97         call hideCursor
2065+ A17D 3A 42 B3         ld a, (cursor_position)
2065+ A180 A7             and a
2065+ A181 28 0A          jr z, .page_up
2066+ A183 3D               dec a
2066+ A184 32 42 B3       ld (cursor_position), a
2067+ A187              .back
2068+ A187 CD 00 98         call showCursor
2069+ A18A C3 68 98         jp uiLoop
2070+ A18D              .page_up
2071+ A18D 3A 43 B3         ld a, (offset)
2071+ A190 A7             and a
2071+ A191 28 F4          jr z, .back
2072+ A193 D6 0A            sub PER_PAGE
2073+ A195 30 01            jr nc, .store_offset        ; No underflow
2074+ A197 AF               xor a                       ; Clamp a 0
2075+ A198              .store_offset
2076+ A198 32 43 B3         ld (offset), a
2077+ A19B 3E 09            ld a, PER_PAGE - 1
2077+ A19D 32 42 B3       ld (cursor_position), a
2078+ A1A0 CD 73 95         call renderList
2079+ A1A3 18 E2            jr .back
2080+ A1A5
2081+ A1A5              ; Page Down - salta una página entera
2082+ A1A5              pageDown:
2083+ A1A5 CD F5 97         call hideCursor
2084+ A1A8 3A 43 B3         ld a, (offset)
2085+ A1AB C6 0A            add a, PER_PAGE
2086+ A1AD 21 59 92         ld hl, Wifi.networks_count
2087+ A1B0 BE               cp (hl)
2088+ A1B1 30 0D            jr nc, .lastPage            ; No hay página completa, ir a última
2089+ A1B3 32 43 B3         ld (offset), a
2090+ A1B6 AF               xor a
2090+ A1B7 32 42 B3       ld (cursor_position), a
2091+ A1BA CD 73 95         call renderList
2092+ A1BD C3 68 98         jp uiLoop
2093+ A1C0              .lastPage
2094+ A1C0                  ; Ir a la última red.
2095+ A1C0                  ; Si la última ya es visible en la página actual, solo mover el cursor (sin repintar).
2096+ A1C0 3A 59 92         ld a, (Wifi.networks_count)
2097+ A1C3 A7               and a
2098+ A1C4 CA 68 98         jp z, uiLoop                ; No hay redes
2099+ A1C7 3D               dec a                       ; Última red (índice)
2100+ A1C8 47               ld b, a                     ; B = last_index
2101+ A1C9
2102+ A1C9 3A 43 B3         ld a, (offset)
2103+ A1CC 4F               ld c, a                     ; C = offset actual
2104+ A1CD 78               ld a, b
2105+ A1CE 91               sub c                       ; A = last_index - offset
2106+ A1CF 38 0D            jr c, .needRepaint          ; (seguridad) last_index < offset
2107+ A1D1 FE 0A            cp PER_PAGE
2108+ A1D3 30 09            jr nc, .needRepaint         ; last_index fuera de la página actual -> repintar
2109+ A1D5
2110+ A1D5 32 42 B3         ld (cursor_position), a     ; cursor_position = last_index - offset
2111+ A1D8 CD 00 98         call showCursor
2112+ A1DB C3 68 98         jp uiLoop
2113+ A1DE
2114+ A1DE              .needRepaint
2115+ A1DE                  ; Calcular offset para que la última red esté visible
2116+ A1DE 78               ld a, b
2117+ A1DF D6 09            sub PER_PAGE - 1
2118+ A1E1 30 01            jr nc, .setOffset
2119+ A1E3 AF               xor a                       ; Si hay menos de PER_PAGE redes, offset=0
2120+ A1E4              .setOffset
2121+ A1E4 32 43 B3         ld (offset), a
2122+ A1E7                  ; cursor_position = índice - offset
2123+ A1E7 78               ld a, b
2124+ A1E8 21 43 B3         ld hl, offset
2125+ A1EB 96               sub (hl)
2126+ A1EC 32 42 B3         ld (cursor_position), a
2127+ A1EF CD 73 95         call renderList
2128+ A1F2 C3 68 98         jp uiLoop
2129+ A1F5
2130+ A1F5              ; Page Up - salta una página entera
2131+ A1F5              pageUp:
2132+ A1F5 CD F5 97         call hideCursor
2133+ A1F8 3A 43 B3         ld a, (offset)
2134+ A1FB A7               and a
2135+ A1FC CA 11 A2         jp z, .firstItem            ; Ya en primera página
2136+ A1FF D6 0A            sub PER_PAGE
2137+ A201 30 01            jr nc, .setOffset
2138+ A203 AF               xor a                       ; Clamp a 0
2139+ A204              .setOffset
2140+ A204 32 43 B3         ld (offset), a
2141+ A207 AF               xor a
2141+ A208 32 42 B3       ld (cursor_position), a
2142+ A20B CD 73 95         call renderList
2143+ A20E C3 68 98         jp uiLoop
2144+ A211              .firstItem
2145+ A211 AF               xor a
2145+ A212 32 42 B3       ld (cursor_position), a
2146+ A215 CD 00 98         call showCursor
2147+ A218 C3 68 98         jp uiLoop
2148+ A21B
2149+ A21B              findRow:
2150+ A21B                  ; d = posición en pantalla
2151+ A21B                  ; Primero obtener el índice real desde display_indices
2152+ A21B 21 40 92         ld hl, Wifi.display_indices
2153+ A21E 5A               ld e, d
2154+ A21F 16 00            ld d, 0
2155+ A221 19               add hl, de
2156+ A222 7E               ld a, (hl)
2157+ A223 57               ld d, a                     ; D = índice real de la red
2158+ A224
2159+ A224                  ; Ahora buscar el SSID[d] en el buffer
2160+ A224 21 00 C0         ld hl, buffer
2160+ A227 7A             ld a, d
2160+ A228 A7             and a
2160+ A229 C8             ret z
2161+ A22A AF               xor a
2162+ A22B              .loop
2163+ A22B 01 FF FF         ld bc, #ffff
2163+ A22E ED B1          cpir
2163+ A230 15             dec d
2163+ A231 20 F8          jr nz, .loop
2164+ A233 C9               ret
2165+ A234
2166+ A234              ; ============================================
2167+ A234              ; selectItem y conexión
2168+ A234              ; ============================================
2169+ A234              selectItem:
2170+ A234 3A 59 92         ld a, (Wifi.networks_count)
2170+ A237 A7             and a
2170+ A238 CA 68 98       jp z, uiLoop
2171+ A23B
2172+ A23B                  ; Obtener posición en pantalla
2173+ A23B 3A 42 B3         ld a, (cursor_position)
2173+ A23E 21 43 B3       ld hl, offset
2173+ A241 86             add a, (hl)
2174+ A242                  ; Convertir a índice real usando display_indices
2175+ A242 CD 34 92         call Wifi.getDisplayIndex   ; A = índice real de la red
2176+ A245 21 61 92         ld hl, Wifi.rssi_buffer
2176+ A248 16 00          ld d, 0
2176+ A24A 5F             ld e, a
2176+ A24B 19             add hl, de
2177+ A24C 7E               ld a, (hl)
2177+ A24D E6 80          and #80
2177+ A24F 32 44 B3       ld (is_open_network), a
2178+ A252
2179+ A252                  ; Obtener puntero a SSID seleccionado (findRow ya usa display_indices)
2180+ A252 3A 42 B3         ld a, (cursor_position)
2180+ A255 21 43 B3       ld hl, offset
2180+ A258 86             add (hl)
2180+ A259 57             ld d, a
2180+ A25A CD 1B A2       call findRow
2181+ A25D 22 46 B3         ld (selected_ssid_ptr), hl
2182+ A260
2183+ A260                  ; Verificar si ya estamos conectados a esta red
2184+ A260 3A 5E 92         ld a, (Wifi.is_connected)
2185+ A263 A7               and a
2186+ A264 28 6D            jr z, .notConnectedYet
2187+ A266
2188+ A266                  ; Comparar SSID seleccionado con connected_ssid
2189+ A266 2A 46 B3         ld hl, (selected_ssid_ptr)
2190+ A269 11 75 92         ld de, Wifi.connected_ssid
2191+ A26C              .compareLoop
2192+ A26C 1A               ld a, (de)
2193+ A26D 47               ld b, a
2194+ A26E 7E               ld a, (hl)
2195+ A26F B8               cp b
2196+ A270 20 61            jr nz, .notConnectedYet      ; Diferentes, continuar
2197+ A272 A7               and a
2198+ A273 28 04            jr z, .alreadyConnected      ; Ambos terminaron en 0, son iguales
2199+ A275 23               inc hl
2200+ A276 13               inc de
2201+ A277 18 F3            jr .compareLoop
2202+ A279
2203+ A279              .alreadyConnected
2204+ A279                  ; Mostrar mensaje de que ya está conectado
2205+ A279 CD F5 97         call hideCursor
2205+ A27C CD 8B 94       call topClean
2206+ A27F                  gotoXY 0, 3
2206+ A27F 21 00 03    >    ld hl, 0 or (3<<8)
2206+ A282 22 4C 82    >    ld (Display.coords), hl
2207+ A285 21 B0 A2         ld hl, .msg_already_conn
2208+ A288 CD 30 80         call Display.putStr
2209+ A28B                  gotoXY 1, 5
2209+ A28B 21 01 05    >    ld hl, 1 or (5<<8)
2209+ A28E 22 4C 82    >    ld (Display.coords), hl
2210+ A291 2A 46 B3         ld hl, (selected_ssid_ptr)
2211+ A294 CD 30 80         call Display.putStr
2212+ A297                  gotoXY 0, 7
2212+ A297 21 00 07    >    ld hl, 0 or (7<<8)
2212+ A29A 22 4C 82    >    ld (Display.coords), hl
2213+ A29D 21 43 B2         ld hl, msg_press_key
2214+ A2A0 CD 30 80         call Display.putStr
2215+ A2A3              .waitAlready
2216+ A2A3 76               halt
2217+ A2A4 CD 2E B5         call Keyboard.inKey
2218+ A2A7 A7               and a
2219+ A2A8 28 F9            jr z, .waitAlready
2220+ A2AA CD 73 95         call renderList
2221+ A2AD C3 68 98         jp uiLoop
2222+ A2B0
2223+ A2B0 41 6C 72 65  .msg_already_conn db "Already connected to this network:", 0
2223+ A2B4 61 64 79 20
2223+ A2B8 63 6F 6E 6E
2223+ A2BC 65 63 74 65
2223+ A2C0 64 20 74 6F
2223+ A2C4 20 74 68 69
2223+ A2C8 73 20 6E 65
2223+ A2CC 74 77 6F 72
2223+ A2D0 6B 3A 00
2224+ A2D3
2225+ A2D3              .notConnectedYet
2226+ A2D3 CD F5 97         call hideCursor
2226+ A2D6 CD 8B 94       call topClean
2227+ A2D9                  gotoXY 0,3
2227+ A2D9 21 00 03    >    ld hl, 0 or (3<<8)
2227+ A2DC 22 4C 82    >    ld (Display.coords), hl
2227+ A2DF 21 E6 B2       ld hl, msg_ssid
2227+ A2E2 CD 30 80       call Display.putStr
2228+ A2E5                  gotoXY 1,4
2228+ A2E5 21 01 04    >    ld hl, 1 or (4<<8)
2228+ A2E8 22 4C 82    >    ld (Display.coords), hl
2229+ A2EB 2A 46 B3         ld hl, (selected_ssid_ptr)
2230+ A2EE CD 30 80         call Display.putStr
2231+ A2F1
2232+ A2F1 3A 44 B3         ld a, (is_open_network)
2232+ A2F4 A7             and a
2232+ A2F5 C2 0E A5       jp nz, .connectDirect
2233+ A2F8 CD 76 94         call clearPassBuffer
2234+ A2FB                  gotoXY 0,6
2234+ A2FB 21 00 06    >    ld hl, 0 or (6<<8)
2234+ A2FE 22 4C 82    >    ld (Display.coords), hl
2234+ A301 21 F5 B2       ld hl, msg_pass
2234+ A304 CD 30 80       call Display.putStr
2235+ A307                  setLineColor 4, 071o
2235+ A307 3E 04 0E 39 >    ld a, 4, c, 071o
2235+ A30B CD 03 80    >    call Display.setAttr
2235+ A30E                setLineColor 7, 171o
2235+ A30E 3E 07 0E 79 >    ld a, 7, c, 171o
2235+ A312 CD 03 80    >    call Display.setAttr
2236+ A315 AF               xor a
2237+ A316 32 45 B3         ld (show_password), a       ; Empezar ocultando
2238+ A319 32 41 B3         ld (pass_cursor), a         ; Cursor al inicio
2239+ A31C
2240+ A31C                  ; Dibujar línea inicial vacía con cursor
2241+ A31C                  gotoXY 1,7
2241+ A31C 21 01 07    >    ld hl, 1 or (7<<8)
2241+ A31F 22 4C 82    >    ld (Display.coords), hl
2242+ A322 3E DB            ld a, 219
2242+ A324 CD 46 80       call Display.putC   ; Cursor
2243+ A327
2244+ A327              .waitKey
2245+ A327                  ; Esperar tecla (no bloqueante)
2246+ A327 06 05            ld b, 5
2247+ A329              .waitLoop
2248+ A329 76               halt
2249+ A32A 10 FD            djnz .waitLoop
2250+ A32C
2251+ A32C CD 35 B5         call Keyboard.inKeyNoWait
2252+ A32F A7               and a
2253+ A330 CA 27 A3         jp z, .waitKey              ; Sin tecla, seguir esperando
2254+ A333
2255+ A333                  ; Toggle visibilidad con flecha arriba
2256+ A333 FE 0B            cp Keyboard.KEY_UP
2257+ A335 CA DC A3         jp z, .toggleVis
2258+ A338
2259+ A338                  ; Cancelar con EDIT
2260+ A338 FE 07            cp 7
2260+ A33A CA FA A4       jp z, .cancel
2261+ A33D
2262+ A33D                  ; Mover cursor izquierda (KEY_LEFT = 8)
2263+ A33D FE 08            cp 8
2263+ A33F CA B3 A3       jp z, .cursorLeft
2264+ A342
2265+ A342                  ; Mover cursor derecha (KEY_RIGHT = 9)
2266+ A342 FE 09            cp 9
2266+ A344 CA C4 A3       jp z, .cursorRight
2267+ A347
2268+ A347                  ; Borrar
2269+ A347 FE 0C            cp Keyboard.KEY_BS
2269+ A349 CA EA A3       jp z, .removeChar
2270+ A34C
2271+ A34C                  ; Enter = conectar
2272+ A34C FE 0D            cp 13
2272+ A34E CA 24 A5       jp z, .connect
2273+ A351
2274+ A351                  ; Filtrar caracteres válidos (solo 32-126)
2275+ A351 FE 20            cp 32
2275+ A353 DA 27 A3       jp c, .waitKey
2276+ A356 FE 7F            cp 127
2276+ A358 D2 27 A3       jp nc, .waitKey
2277+ A35B
2278+ A35B                  ; === INSERTAR CARÁCTER ===
2279+ A35B 4F               ld c, a                     ; Guardar carácter en C
2280+ A35C 3A 40 B3         ld a, (pass_len)
2281+ A35F FE 28            cp MAX_PASS_LEN
2282+ A361 D2 27 A3         jp nc, .waitKey             ; Buffer lleno
2283+ A364
2284+ A364                  ; Verificar si insertamos al final o en medio
2285+ A364 3A 41 B3         ld a, (pass_cursor)
2286+ A367 47               ld b, a
2287+ A368 3A 40 B3         ld a, (pass_len)
2288+ A36B B8               cp b
2289+ A36C 28 1D            jr z, .insertAtEnd
2290+ A36E
2291+ A36E                  ; Insertar en medio: desplazar caracteres a la derecha
2292+ A36E                  ; Desde pass_len-1 hasta pass_cursor, mover cada uno +1
2293+ A36E 3A 40 B3         ld a, (pass_len)
2294+ A371 47               ld b, a                     ; B = pass_len (contador)
2295+ A372 3A 41 B3         ld a, (pass_cursor)
2296+ A375 5F               ld e, a                     ; E = pass_cursor
2297+ A376
2298+ A376              .shiftRight
2299+ A376 78               ld a, b
2300+ A377 BB               cp e
2301+ A378 28 11            jr z, .insertChar           ; Llegamos a la posición del cursor
2302+ A37A
2303+ A37A                  ; Copiar pass_buffer[b-1] a pass_buffer[b]
2304+ A37A 05               dec b
2305+ A37B 21 16 B3         ld hl, pass_buffer
2306+ A37E 16 00            ld d, 0
2307+ A380 D5               push de
2308+ A381 58               ld e, b
2309+ A382 19               add hl, de                  ; HL = &pass_buffer[b-1]
2310+ A383 7E               ld a, (hl)
2311+ A384 23               inc hl                      ; HL = &pass_buffer[b]
2312+ A385 77               ld (hl), a
2313+ A386 D1               pop de
2314+ A387 04               inc b
2315+ A388 05               dec b
2316+ A389 18 EB            jr .shiftRight
2317+ A38B
2318+ A38B              .insertAtEnd
2319+ A38B              .insertChar
2320+ A38B                  ; Insertar carácter en posición del cursor
2321+ A38B 3A 41 B3         ld a, (pass_cursor)
2322+ A38E 21 16 B3         ld hl, pass_buffer
2323+ A391 16 00            ld d, 0
2324+ A393 5F               ld e, a
2325+ A394 19               add hl, de
2326+ A395 71               ld (hl), c                  ; Guardar carácter
2327+ A396
2328+ A396                  ; Incrementar longitud
2329+ A396 3A 40 B3         ld a, (pass_len)
2330+ A399 3C               inc a
2331+ A39A 32 40 B3         ld (pass_len), a
2332+ A39D
2333+ A39D                  ; Poner null terminator
2334+ A39D 21 16 B3         ld hl, pass_buffer
2335+ A3A0 16 00            ld d, 0
2336+ A3A2 5F               ld e, a
2337+ A3A3 19               add hl, de
2338+ A3A4 AF               xor a
2339+ A3A5 77               ld (hl), a
2340+ A3A6
2341+ A3A6                  ; Incrementar cursor
2342+ A3A6 3A 41 B3         ld a, (pass_cursor)
2343+ A3A9 3C               inc a
2344+ A3AA 32 41 B3         ld (pass_cursor), a
2345+ A3AD
2346+ A3AD                  ; Redibujar todo
2347+ A3AD CD 31 A4         call .redrawAll
2348+ A3B0 C3 27 A3         jp .waitKey
2349+ A3B3
2350+ A3B3              .cursorLeft
2351+ A3B3 3A 41 B3         ld a, (pass_cursor)
2352+ A3B6 A7               and a
2353+ A3B7 CA 27 A3         jp z, .waitKey              ; Ya está al inicio
2354+ A3BA
2355+ A3BA 3D               dec a
2356+ A3BB 32 41 B3         ld (pass_cursor), a
2357+ A3BE CD 31 A4         call .redrawAll
2358+ A3C1 C3 27 A3         jp .waitKey
2359+ A3C4
2360+ A3C4              .cursorRight
2361+ A3C4 3A 41 B3         ld a, (pass_cursor)
2362+ A3C7 47               ld b, a
2363+ A3C8 3A 40 B3         ld a, (pass_len)
2364+ A3CB B8               cp b
2365+ A3CC CA 27 A3         jp z, .waitKey              ; Ya está al final
2366+ A3CF
2367+ A3CF 3A 41 B3         ld a, (pass_cursor)
2368+ A3D2 3C               inc a
2369+ A3D3 32 41 B3         ld (pass_cursor), a
2370+ A3D6 CD 31 A4         call .redrawAll
2371+ A3D9 C3 27 A3         jp .waitKey
2372+ A3DC
2373+ A3DC              .toggleVis
2374+ A3DC 3A 45 B3         ld a, (show_password)
2375+ A3DF EE 01            xor 1
2376+ A3E1 32 45 B3         ld (show_password), a
2377+ A3E4                  ; Redibujar todo
2378+ A3E4 CD 31 A4         call .redrawAll
2379+ A3E7 C3 27 A3         jp .waitKey
2380+ A3EA
2381+ A3EA              .removeChar
2382+ A3EA 3A 41 B3         ld a, (pass_cursor)
2383+ A3ED A7               and a
2384+ A3EE CA 27 A3         jp z, .waitKey              ; Nada que borrar antes del cursor
2385+ A3F1
2386+ A3F1                  ; Verificar si borramos al final o en medio
2387+ A3F1 3A 41 B3         ld a, (pass_cursor)
2388+ A3F4 47               ld b, a
2389+ A3F5 3A 40 B3         ld a, (pass_len)
2390+ A3F8 B8               cp b
2391+ A3F9 28 19            jr z, .deleteAtEnd
2392+ A3FB
2393+ A3FB                  ; Borrar en medio: desplazar caracteres a la izquierda
2394+ A3FB                  ; Desde pass_cursor hasta pass_len-1
2395+ A3FB 3A 41 B3         ld a, (pass_cursor)
2396+ A3FE 47               ld b, a                     ; B = posición actual
2397+ A3FF 3A 40 B3         ld a, (pass_len)
2398+ A402 4F               ld c, a                     ; C = pass_len
2399+ A403
2400+ A403              .shiftLeft
2401+ A403 78               ld a, b
2402+ A404 B9               cp c
2403+ A405 28 0D            jr z, .finishDelete
2404+ A407
2405+ A407                  ; Copiar pass_buffer[b] a pass_buffer[b-1]
2406+ A407 21 16 B3         ld hl, pass_buffer
2407+ A40A 16 00            ld d, 0
2408+ A40C 58               ld e, b
2409+ A40D 19               add hl, de                  ; HL = &pass_buffer[b]
2410+ A40E 7E               ld a, (hl)
2411+ A40F 2B               dec hl                      ; HL = &pass_buffer[b-1]
2412+ A410 77               ld (hl), a
2413+ A411 04               inc b
2414+ A412 18 EF            jr .shiftLeft
2415+ A414
2416+ A414              .deleteAtEnd
2417+ A414              .finishDelete
2418+ A414                  ; Decrementar longitud
2419+ A414 3A 40 B3         ld a, (pass_len)
2420+ A417 3D               dec a
2421+ A418 32 40 B3         ld (pass_len), a
2422+ A41B
2423+ A41B                  ; Poner null terminator
2424+ A41B 21 16 B3         ld hl, pass_buffer
2425+ A41E 16 00            ld d, 0
2426+ A420 5F               ld e, a
2427+ A421 19               add hl, de
2428+ A422 AF               xor a
2429+ A423 77               ld (hl), a
2430+ A424
2431+ A424                  ; Decrementar cursor
2432+ A424 3A 41 B3         ld a, (pass_cursor)
2433+ A427 3D               dec a
2434+ A428 32 41 B3         ld (pass_cursor), a
2435+ A42B
2436+ A42B                  ; Redibujar todo
2437+ A42B CD 31 A4         call .redrawAll
2438+ A42E C3 27 A3         jp .waitKey
2439+ A431
2440+ A431              ; --- Subrutinas de renderizado ---
2441+ A431
2442+ A431              ; Redibuja todo el campo de contraseña
2443+ A431              ; Orden: [chars 0..pass_cursor-1] [cursor] [chars pass_cursor..pass_len-1]
2444+ A431              .redrawAll
2445+ A431                  ; Posicionar al inicio
2446+ A431                  gotoXY 1,7
2446+ A431 21 01 07    >    ld hl, 1 or (7<<8)
2446+ A434 22 4C 82    >    ld (Display.coords), hl
2447+ A437
2448+ A437                  ; === Parte 1: Dibujar caracteres ANTES del cursor (0 a pass_cursor-1) ===
2449+ A437 3A 41 B3         ld a, (pass_cursor)
2450+ A43A A7               and a
2451+ A43B 28 23            jr z, .drawCursorNow        ; pass_cursor=0, no hay chars antes
2452+ A43D
2453+ A43D 47               ld b, a                     ; B = pass_cursor (cantidad de chars antes)
2454+ A43E 21 16 B3         ld hl, pass_buffer
2455+ A441
2456+ A441 3A 45 B3         ld a, (show_password)
2457+ A444 A7               and a
2458+ A445 20 0E            jr nz, .drawRealBefore
2459+ A447
2460+ A447              .drawAsterBefore
2461+ A447 C5               push bc
2462+ A448 E5               push hl
2463+ A449 3E 2A            ld a, '*'
2464+ A44B CD 46 80         call Display.putC
2465+ A44E E1               pop hl
2466+ A44F 23               inc hl
2467+ A450 C1               pop bc
2468+ A451 10 F4            djnz .drawAsterBefore
2469+ A453 18 0B            jr .drawCursorNow
2470+ A455
2471+ A455              .drawRealBefore
2472+ A455 C5               push bc
2473+ A456 E5               push hl
2474+ A457 7E               ld a, (hl)
2475+ A458 CD 46 80         call Display.putC
2476+ A45B E1               pop hl
2477+ A45C 23               inc hl
2478+ A45D C1               pop bc
2479+ A45E 10 F5            djnz .drawRealBefore
2480+ A460
2481+ A460              .drawCursorNow
2482+ A460                  ; === Parte 2: Dibujar el cursor ===
2483+ A460 3E DB            ld a, 219
2484+ A462 CD 46 80         call Display.putC
2485+ A465
2486+ A465                  ; === Parte 3: Dibujar caracteres DESPUÉS del cursor (pass_cursor a pass_len-1) ===
2487+ A465 3A 40 B3         ld a, (pass_len)
2488+ A468 47               ld b, a
2489+ A469 3A 41 B3         ld a, (pass_cursor)
2490+ A46C B8               cp b
2491+ A46D 30 2F            jr nc, .clearTrailing       ; pass_cursor >= pass_len, no hay chars después
2492+ A46F
2493+ A46F                  ; Calcular cuántos chars después: pass_len - pass_cursor
2494+ A46F 4F               ld c, a                     ; C = pass_cursor
2495+ A470 78               ld a, b
2496+ A471 91               sub c                       ; A = pass_len - pass_cursor
2497+ A472 28 2A            jr z, .clearTrailing        ; 0 chars después
2498+ A474
2499+ A474 47               ld b, a                     ; B = cantidad de chars después
2500+ A475                  ; HL ya apunta al buffer en posición pass_cursor (si vinimos de drawRealBefore/drawAsterBefore)
2501+ A475                  ; Pero si pass_cursor=0, HL no está inicializado, así que lo hacemos explícito
2502+ A475 3A 41 B3         ld a, (pass_cursor)
2503+ A478 21 16 B3         ld hl, pass_buffer
2504+ A47B 16 00            ld d, 0
2505+ A47D 5F               ld e, a
2506+ A47E 19               add hl, de                  ; HL = &pass_buffer[pass_cursor]
2507+ A47F
2508+ A47F 3A 45 B3         ld a, (show_password)
2509+ A482 A7               and a
2510+ A483 20 0E            jr nz, .drawRealAfter
2511+ A485
2512+ A485              .drawAsterAfter
2513+ A485 C5               push bc
2514+ A486 E5               push hl
2515+ A487 3E 2A            ld a, '*'
2516+ A489 CD 46 80         call Display.putC
2517+ A48C E1               pop hl
2518+ A48D 23               inc hl
2519+ A48E C1               pop bc
2520+ A48F 10 F4            djnz .drawAsterAfter
2521+ A491 18 0B            jr .clearTrailing
2522+ A493
2523+ A493              .drawRealAfter
2524+ A493 C5               push bc
2525+ A494 E5               push hl
2526+ A495 7E               ld a, (hl)
2527+ A496 CD 46 80         call Display.putC
2528+ A499 E1               pop hl
2529+ A49A 23               inc hl
2530+ A49B C1               pop bc
2531+ A49C 10 F5            djnz .drawRealAfter
2532+ A49E
2533+ A49E              .clearTrailing
2534+ A49E                  ; Limpiar posibles caracteres residuales (2-3 espacios)
2535+ A49E 3E 20            ld a, ' '
2536+ A4A0 CD 46 80         call Display.putC
2537+ A4A3 3E 20            ld a, ' '
2538+ A4A5 CD 46 80         call Display.putC
2539+ A4A8 C9               ret
2540+ A4A9
2541+ A4A9              ; Redibuja desde la posición del cursor hacia adelante
2542+ A4A9              ; (usado después de insertar/borrar)
2543+ A4A9              .redrawFromCursor
2544+ A4A9                  ; Posicionar en pass_cursor
2545+ A4A9 3A 41 B3         ld a, (pass_cursor)
2546+ A4AC C6 01            add a, 1
2547+ A4AE 6F               ld l, a
2548+ A4AF 26 07            ld h, 7
2549+ A4B1 22 4C 82         ld (Display.coords), hl
2550+ A4B4
2551+ A4B4                  ; Primero dibujar el cursor
2552+ A4B4 3E DB            ld a, 219
2553+ A4B6 CD 46 80         call Display.putC
2554+ A4B9
2555+ A4B9                  ; Calcular cuántos caracteres hay desde pass_cursor hasta el final
2556+ A4B9 3A 40 B3         ld a, (pass_len)
2557+ A4BC 47               ld b, a
2558+ A4BD 3A 41 B3         ld a, (pass_cursor)
2559+ A4C0 4F               ld c, a
2560+ A4C1 78               ld a, b
2561+ A4C2 91               sub c                       ; A = pass_len - pass_cursor
2562+ A4C3 28 2A            jr z, .clearAfterCursor     ; No hay más caracteres después del cursor
2563+ A4C5
2564+ A4C5                  ; Dibujar caracteres desde pass_cursor hasta pass_len
2565+ A4C5 47               ld b, a                     ; B = caracteres a dibujar
2566+ A4C6 3A 41 B3         ld a, (pass_cursor)
2567+ A4C9 21 16 B3         ld hl, pass_buffer
2568+ A4CC 16 00            ld d, 0
2569+ A4CE 5F               ld e, a
2570+ A4CF 19               add hl, de                  ; HL = &pass_buffer[pass_cursor]
2571+ A4D0
2572+ A4D0 3A 45 B3         ld a, (show_password)
2573+ A4D3 A7               and a
2574+ A4D4 20 0E            jr nz, .redrawRealFrom
2575+ A4D6
2576+ A4D6              .redrawAsterFrom
2577+ A4D6 C5               push bc
2578+ A4D7 E5               push hl
2579+ A4D8 3E 2A            ld a, '*'
2580+ A4DA CD 46 80         call Display.putC
2581+ A4DD E1               pop hl
2582+ A4DE 23               inc hl
2583+ A4DF C1               pop bc
2584+ A4E0 10 F4            djnz .redrawAsterFrom
2585+ A4E2 18 0B            jr .clearAfterCursor
2586+ A4E4
2587+ A4E4              .redrawRealFrom
2588+ A4E4 C5               push bc
2589+ A4E5 E5               push hl
2590+ A4E6 7E               ld a, (hl)
2591+ A4E7 CD 46 80         call Display.putC
2592+ A4EA E1               pop hl
2593+ A4EB 23               inc hl
2594+ A4EC C1               pop bc
2595+ A4ED 10 F5            djnz .redrawRealFrom
2596+ A4EF
2597+ A4EF              .clearAfterCursor
2598+ A4EF                  ; Limpiar posición después de todo (por si borramos un carácter)
2599+ A4EF 3E 20            ld a, ' '
2600+ A4F1 CD 46 80         call Display.putC
2601+ A4F4 3E 20            ld a, ' '
2602+ A4F6 CD 46 80         call Display.putC
2603+ A4F9 C9               ret
2604+ A4FA
2605+ A4FA              .cancel
2606+ A4FA                  setLineColor 4, 107o
2606+ A4FA 3E 04 0E 47 >    ld a, 4, c, 107o
2606+ A4FE CD 03 80    >    call Display.setAttr
2606+ A501                setLineColor 7, 107o
2606+ A501 3E 07 0E 47 >    ld a, 7, c, 107o
2606+ A505 CD 03 80    >    call Display.setAttr
2607+ A508 CD 73 95         call renderList
2607+ A50B C3 68 98       jp uiLoop
2608+ A50E
2609+ A50E              .connectDirect
2610+ A50E CD 76 94         call clearPassBuffer
2611+ A511                  setLineColor 4, 071o
2611+ A511 3E 04 0E 39 >    ld a, 4, c, 071o
2611+ A515 CD 03 80    >    call Display.setAttr
2612+ A518                  gotoXY 0, 6
2612+ A518 21 00 06    >    ld hl, 0 or (6<<8)
2612+ A51B 22 4C 82    >    ld (Display.coords), hl
2612+ A51E 21 A6 B2       ld hl, msg_open_net
2612+ A521 CD 30 80       call Display.putStr
2613+ A524
2614+ A524              .connect
2615+ A524                  ; Mostrar asteriscos en vez de contraseña
2616+ A524                  gotoXY 1,7
2616+ A524 21 01 07    >    ld hl, 1 or (7<<8)
2616+ A527 22 4C 82    >    ld (Display.coords), hl
2617+ A52A 3A 40 B3         ld a, (pass_len)
2618+ A52D A7               and a
2619+ A52E 28 0A            jr z, .noAsterisks
2620+ A530 47               ld b, a
2621+ A531              .showConnAsterisks
2622+ A531 C5               push bc
2623+ A532 3E 2A            ld a, '*'
2624+ A534 CD 46 80         call Display.putC
2625+ A537 C1               pop bc
2626+ A538 10 F7            djnz .showConnAsterisks
2627+ A53A              .noAsterisks
2628+ A53A 3E 20            ld a, ' '
2628+ A53C CD 46 80       call Display.putC
2628+ A53F 3E 20          ld a,' '
2628+ A541 CD 46 80       call Display.putC
2629+ A544
2630+ A544                  ; Inicializar contador de reintentos
2631+ A544 3E 03            ld a, 3
2632+ A546 32 87 AF         ld (conn_retries), a
2633+ A549
2634+ A549              ;    Verificar estado previo
2635+ A549 3A 5E 92         ld a, (Wifi.is_connected)
2636+ A54C A7               and a
2637+ A54D 28 0A            jr z, .skipUiUpdate
2638+ A54F
2639+ A54F                  ; Actualizar UI solo si estaba conectado
2640+ A54F AF               xor a
2641+ A550 32 5E 92         ld (Wifi.is_connected), a
2642+ A553 CD 6E 94         call updateWifiStatus
2643+ A556 CD 4A 93         call ipShowNotConnected
2644+ A559
2645+ A559              .skipUiUpdate:
2646+ A559
2647+ A559 CD 8A 8B         call Wifi.flushInput
2648+ A55C 21 88 AF         ld hl, cmd_disconnect
2649+ A55F CD C9 8E         call Wifi.espSendZ
2650+ A562 CD 55 8F         call Wifi.checkOkErr
2651+ A565 CD 8A 8B         call Wifi.flushInput
2652+ A568
2653+ A568              .connectRetry
2654+ A568                  gotoXY 1, 10
2654+ A568 21 01 0A    >    ld hl, 1 or (10<<8)
2654+ A56B 22 4C 82    >    ld (Display.coords), hl
2655+ A56E                  ; Limpiar línea primero
2656+ A56E 06 1E            ld b, 30
2657+ A570              .clrConnLine
2658+ A570 3E 20            ld a, ' '
2659+ A572 C5               push bc
2660+ A573 CD 46 80         call Display.putC
2661+ A576 C1               pop bc
2662+ A577 10 F7            djnz .clrConnLine
2663+ A579
2664+ A579                  gotoXY 1, 10
2664+ A579 21 01 0A    >    ld hl, 1 or (10<<8)
2664+ A57C 22 4C 82    >    ld (Display.coords), hl
2665+ A57F                  ; Mostrar intento actual (sin Retry - eso se muestra después del fallo)
2666+ A57F 3A 87 AF         ld a, (conn_retries)
2667+ A582 47               ld b, a
2668+ A583 3E 04            ld a, 4
2669+ A585 90               sub b                       ; 4 - retries = intento (1, 2, 3)
2670+ A586 C6 30            add a, '0'
2671+ A588 32 6C B2         ld (msg_conn_attempt + 12), a
2672+ A58B 21 60 B2         ld hl, msg_conn_attempt
2673+ A58E CD 30 80         call Display.putStr
2674+ A591
2675+ A591                  ; Mostrar opción de cancelar (en línea 12)
2676+ A591                  gotoXY 1, 12
2676+ A591 21 01 0C    >    ld hl, 1 or (12<<8)
2676+ A594 22 4C 82    >    ld (Display.coords), hl
2677+ A597 21 7B B2         ld hl, msg_break_cancel
2678+ A59A CD 30 80         call Display.putStr
2679+ A59D
2680+ A59D                  ; AT+CWJAP se envia en varias partes. Para evitar mezclar log y ocultar password,
2681+ A59D                  ; se mutea el log durante todo el envio.
2682+ A59D 21 CF A6         ld hl, .log_cwjap_masked
2683+ A5A0 CD 3B 80         call Display.putStrLog
2684+ A5A3 CD 71 B4         call Uart.logReset
2685+ A5A6 AF               xor a
2685+ A5A7 32 7C B4       ld (Uart.log_enabled), a
2686+ A5AA
2687+ A5AA 3A 5C 92         ld a, (Wifi.old_fw)
2687+ A5AD 21 C8 B2       ld hl, at_start
2687+ A5B0 B7             or a
2687+ A5B1 28 03          jr z, .send_cmd
2687+ A5B3 21 D3 B2       ld hl, at_start_old
2688+ A5B6              .send_cmd
2689+ A5B6 CD C9 8E         call Wifi.espSendZ
2690+ A5B9 2A 46 B3         ld hl, (selected_ssid_ptr)
2691+ A5BC CD C9 8E         call Wifi.espSendZ
2692+ A5BF 21 E2 B2         ld hl, at_middle
2692+ A5C2 CD C9 8E       call Wifi.espSendZ
2693+ A5C5
2694+ A5C5                  ; Send password (muted)
2695+ A5C5 21 16 B3         ld hl, pass_buffer
2695+ A5C8 CD C9 8E       call Wifi.espSendZ
2696+ A5CB
2697+ A5CB                  ; Send closing quote + CR LF manually (muted)
2698+ A5CB                  ; Esto evita que se loguee la contraseña o el eco antes de tiempo
2699+ A5CB 3E 22            ld a, '"'
2699+ A5CD CD A7 B3       call Uart.write
2700+ A5D0 3E 0D            ld a, 13
2700+ A5D2 CD A7 B3       call Uart.write
2701+ A5D5 3E 0A            ld a, 10
2701+ A5D7 CD A7 B3       call Uart.write
2702+ A5DA
2703+ A5DA                  ; Usar timeout largo para conexión WiFi (puede tardar 5-15 segundos)
2704+ A5DA                  ; LOG SIGUE MUTEADO para evitar eco de contraseña
2705+ A5DA CD 5E 8F         call Wifi.checkOkErrLong
2706+ A5DD
2707+ A5DD                  ; --- UNMUTE UART LOG ---
2708+ A5DD F5               push af                     ; Preservar resultado
2709+ A5DE 3E 01            ld a, 1
2709+ A5E0 32 7C B4       ld (Uart.log_enabled), a
2710+ A5E3                  ; Añadir salto de línea al log para separar del comando anterior
2711+ A5E3 21 EE A6         ld hl, .log_newline
2712+ A5E6 CD 3B 80         call Display.putStrLog
2713+ A5E9 F1               pop af
2714+ A5EA
2715+ A5EA 30 2E            jr nc, .connSuccess         ; CF=0 -> OK
2716+ A5EC
2717+ A5EC                  ; Fallo - mostrar "Retry" junto al mensaje actual (línea 10, después de "Connecting (x/3)...")
2718+ A5EC                  gotoXY 20, 10
2718+ A5EC 21 14 0A    >    ld hl, 20 or (10<<8)
2718+ A5EF 22 4C 82    >    ld (Display.coords), hl
2719+ A5F2 21 74 B2         ld hl, msg_retry_suffix
2720+ A5F5 CD 30 80         call Display.putStr
2721+ A5F8
2722+ A5F8                  ; Verificar si quedan reintentos
2723+ A5F8 3A 87 AF         ld a, (conn_retries)
2724+ A5FB 3D               dec a
2725+ A5FC 32 87 AF         ld (conn_retries), a
2726+ A5FF CA 65 A6         jp z, .connFailedFinal      ; No más reintentos
2727+ A602
2728+ A602                  ; Esperar antes de reintentar, verificando BREAK
2729+ A602 06 64            ld b, 100
2730+ A604              .retryWait
2731+ A604 76               halt
2732+ A605 C5               push bc
2733+ A606 CD 20 B5         call Keyboard.checkBreak
2734+ A609 C1               pop bc
2735+ A60A 28 05            jr z, .breakPressed         ; Z=1 si BREAK pulsado
2736+ A60C 10 F6            djnz .retryWait
2737+ A60E
2738+ A60E C3 68 A5         jp .connectRetry
2739+ A611
2740+ A611              .breakPressed
2741+ A611                  ; Usuario canceló con BREAK
2742+ A611 CD 8A 8B         call Wifi.flushInput
2743+ A614 CD 73 95         call renderList
2744+ A617 C3 68 98         jp uiLoop
2745+ A61A
2746+ A61A              .connSuccess
2747+ A61A 3E 01            ld a, 1
2747+ A61C 32 5E 92       ld (Wifi.is_connected), a
2748+ A61F CD 6E 94         call updateWifiStatus
2749+ A622                  ifdef ESXCOMPAT
2750+ A622 ~                call Compat.iwConfig
2751+ A622                  endif
2752+ A622
2753+ A622 CD 8B 94         call topClean
2754+ A625
2755+ A625                  ; Pequeño delay para que el ESP tenga la IP lista
2756+ A625 06 32            ld b, 50
2757+ A627              .ipDelay
2758+ A627 76               halt
2759+ A628 10 FD            djnz .ipDelay
2760+ A62A CD 53 93         call ipShowConnected        ; Mostrar IP después de topClean y delay
2761+ A62D
2762+ A62D                  setLineColor 4, 107o
2762+ A62D 3E 04 0E 47 >    ld a, 4, c, 107o
2762+ A631 CD 03 80    >    call Display.setAttr
2762+ A634                setLineColor 7, 107o
2762+ A634 3E 07 0E 47 >    ld a, 7, c, 107o
2762+ A638 CD 03 80    >    call Display.setAttr
2763+ A63B                  gotoXY 0, 3
2763+ A63B 21 00 03    >    ld hl, 0 or (3<<8)
2763+ A63E 22 4C 82    >    ld (Display.coords), hl
2763+ A641 21 3F B1       ld hl, msg_done
2763+ A644 CD 30 80       call Display.putStr
2764+ A647                  gotoXY 0, 7
2764+ A647 21 00 07    >    ld hl, 0 or (7<<8)
2764+ A64A 22 4C 82    >    ld (Display.coords), hl
2764+ A64D 21 43 B2       ld hl, msg_press_key
2764+ A650 CD 30 80       call Display.putStr
2765+ A653              .waitSuccess
2766+ A653 76               halt
2766+ A654 CD 2E B5       call Keyboard.inKey
2766+ A657 A7             and a
2766+ A658 28 F9          jr z, .waitSuccess
2767+ A65A FE 0F            cp 15
2767+ A65C CA 3A A1       jp z, exitProgram
2768+ A65F CD 73 95         call renderList
2768+ A662 C3 68 98       jp uiLoop
2769+ A665
2770+ A665              .connFailedFinal
2771+ A665                  ; Intentar recuperar ESP si está colgado
2772+ A665 CD F0 A6         call tryRecoverESP
2773+ A668
2774+ A668              .connFailed
2775+ A668 AF               xor a
2775+ A669 32 5E 92       ld (Wifi.is_connected), a
2776+ A66C CD 6E 94         call updateWifiStatus
2777+ A66F CD 4A 93         call ipShowNotConnected
2778+ A672 CD 8B 94         call topClean
2779+ A675                  setLineColor 4, 107o
2779+ A675 3E 04 0E 47 >    ld a, 4, c, 107o
2779+ A679 CD 03 80    >    call Display.setAttr
2779+ A67C                setLineColor 7, 107o
2779+ A67C 3E 07 0E 47 >    ld a, 7, c, 107o
2779+ A680 CD 03 80    >    call Display.setAttr
2780+ A683
2781+ A683                  ; Mostrar mensaje según código de error
2782+ A683                  gotoXY 0, 3
2782+ A683 21 00 03    >    ld hl, 0 or (3<<8)
2782+ A686 22 4C 82    >    ld (Display.coords), hl
2783+ A689 3A AA 90         ld a, (Wifi.last_error)
2784+ A68C FE 01            cp 1
2784+ A68E 28 11          jr z, .errTimeout
2785+ A690 FE 02            cp 2
2785+ A692 28 12          jr z, .errPassword
2786+ A694 FE 03            cp 3
2786+ A696 28 13          jr z, .errNotFound
2787+ A698 FE 04            cp 4
2787+ A69A 28 14          jr z, .errConnFail
2788+ A69C                  ; Error genérico (0 o desconocido)
2789+ A69C 21 6A B1         ld hl, msg_fail_generic
2790+ A69F 18 12            jr .showFailMsg
2791+ A6A1
2792+ A6A1              .errTimeout
2793+ A6A1 21 8D B1         ld hl, msg_fail_timeout
2794+ A6A4 18 0D            jr .showFailMsg
2795+ A6A6              .errPassword
2796+ A6A6 21 B9 B1         ld hl, msg_fail_password
2797+ A6A9 18 08            jr .showFailMsg
2798+ A6AB              .errNotFound
2799+ A6AB 21 E8 B1         ld hl, msg_fail_notfound
2800+ A6AE 18 03            jr .showFailMsg
2801+ A6B0              .errConnFail
2802+ A6B0 21 14 B2         ld hl, msg_fail_connfail
2803+ A6B3
2804+ A6B3              .showFailMsg
2805+ A6B3 CD 30 80         call Display.putStr
2806+ A6B6                  gotoXY 0, 7
2806+ A6B6 21 00 07    >    ld hl, 0 or (7<<8)
2806+ A6B9 22 4C 82    >    ld (Display.coords), hl
2806+ A6BC 21 43 B2       ld hl, msg_press_key
2806+ A6BF CD 30 80       call Display.putStr
2807+ A6C2              .waitFail
2808+ A6C2 76               halt
2808+ A6C3 CD 2E B5       call Keyboard.inKey
2808+ A6C6 A7             and a
2808+ A6C7 28 F9          jr z, .waitFail
2809+ A6C9 CD 73 95         call renderList
2809+ A6CC C3 68 98       jp uiLoop
2810+ A6CF
2811+ A6CF 3E 3E 20 41  .log_cwjap_masked db ">> AT+CWJAP (password hidden)", 13, 0
2811+ A6D3 54 2B 43 57
2811+ A6D7 4A 41 50 20
2811+ A6DB 28 70 61 73
2811+ A6DF 73 77 6F 72
2811+ A6E3 64 20 68 69
2811+ A6E7 64 64 65 6E
2811+ A6EB 29 0D 00
2812+ A6EE
2813+ A6EE 0D 00        .log_newline db 13, 0
2814+ A6F0
2815+ A6F0              ; Intenta recuperar un ESP que no responde
2816+ A6F0              tryRecoverESP:
2817+ A6F0                  ; Enviar +++ para salir de modo transparente
2818+ A6F0 E5               push hl
2819+ A6F1 21 07 A7         ld hl, .escape_seq
2820+ A6F4 CD C9 8E         call Wifi.espSendZ
2821+ A6F7
2822+ A6F7                  ; Esperar
2823+ A6F7 06 32            ld b, 50
2824+ A6F9              .wait1
2825+ A6F9 76               halt
2826+ A6FA 10 FD            djnz .wait1
2827+ A6FC
2828+ A6FC                  ; Enviar AT para verificar respuesta
2829+ A6FC 21 0B A7         ld hl, .at_test
2830+ A6FF CD C9 8E         call Wifi.espSendZ
2831+ A702 CD D6 B3         call Uart.readTimeout
2832+ A705 E1               pop hl
2833+ A706 C9               ret                         ; Retornar aunque falle, lo intentamos
2834+ A707 2B 2B 2B 00  .escape_seq db "+++", 0
2835+ A70B 41 54 0D 0A  .at_test    db "AT", 13, 10, 0
2835+ A70F 00
2836+ A710
2837+ A710              ; ============================================
2838+ A710              ; Diagnósticos
2839+ A710              ; ============================================
2840+ A710              showDiagnostics:
2841+ A710 CD 8B 94         call topClean
2842+ A713
2843+ A713                  ; Verificar si está conectado
2844+ A713 3A 5E 92         ld a, (Wifi.is_connected)
2845+ A716 A7               and a
2846+ A717 20 25            jr nz, .showMenu
2847+ A719
2848+ A719                  ; No conectado - mostrar error
2849+ A719                  gotoXY 0, 3
2849+ A719 21 00 03    >    ld hl, 0 or (3<<8)
2849+ A71C 22 4C 82    >    ld (Display.coords), hl
2850+ A71F 21 B3 A7         ld hl, .msg_not_conn
2851+ A722 CD 30 80         call Display.putStr
2852+ A725                  gotoXY 0, 5
2852+ A725 21 00 05    >    ld hl, 0 or (5<<8)
2852+ A728 22 4C 82    >    ld (Display.coords), hl
2853+ A72B 21 43 B2         ld hl, msg_press_key
2854+ A72E CD 30 80         call Display.putStr
2855+ A731              .waitNotConn
2856+ A731 76               halt
2857+ A732 CD 2E B5         call Keyboard.inKey
2858+ A735 A7               and a
2859+ A736 28 F9            jr z, .waitNotConn
2860+ A738 CD 73 95         call renderList
2861+ A73B C3 68 98         jp uiLoop
2862+ A73E
2863+ A73E              .showMenu
2864+ A73E                  gotoXY 0, 3
2864+ A73E 21 00 03    >    ld hl, 0 or (3<<8)
2864+ A741 22 4C 82    >    ld (Display.coords), hl
2865+ A744 21 CF A7         ld hl, .msg_diag_title
2866+ A747 CD 30 80         call Display.putStr
2867+ A74A                  gotoXY 0, 5
2867+ A74A 21 00 05    >    ld hl, 0 or (5<<8)
2867+ A74D 22 4C 82    >    ld (Display.coords), hl
2868+ A750 21 E3 A7         ld hl, .msg_diag_opt1
2869+ A753 CD 30 80         call Display.putStr
2870+ A756                  gotoXY 0, 6
2870+ A756 21 00 06    >    ld hl, 0 or (6<<8)
2870+ A759 22 4C 82    >    ld (Display.coords), hl
2871+ A75C 21 F0 A7         ld hl, .msg_diag_opt2
2872+ A75F CD 30 80         call Display.putStr
2873+ A762                  gotoXY 0, 7
2873+ A762 21 00 07    >    ld hl, 0 or (7<<8)
2873+ A765 22 4C 82    >    ld (Display.coords), hl
2874+ A768 21 0A A8         ld hl, .msg_diag_opt3
2875+ A76B CD 30 80         call Display.putStr
2876+ A76E                  gotoXY 0, 8
2876+ A76E 21 00 08    >    ld hl, 0 or (8<<8)
2876+ A771 22 4C 82    >    ld (Display.coords), hl
2877+ A774 21 23 A8         ld hl, .msg_diag_opt4
2878+ A777 CD 30 80         call Display.putStr
2879+ A77A                  gotoXY 0, 10
2879+ A77A 21 00 0A    >    ld hl, 0 or (10<<8)
2879+ A77D 22 4C 82    >    ld (Display.coords), hl
2880+ A780 21 35 A8         ld hl, .msg_diag_exit
2881+ A783 CD 30 80         call Display.putStr
2882+ A786
2883+ A786              .diagLoop
2884+ A786 76               halt
2885+ A787 CD 2E B5         call Keyboard.inKey
2886+ A78A FE 31            cp '1'
2886+ A78C CA 2C A9       jp z, doPing
2887+ A78F FE 32            cp '2'
2887+ A791 CA D5 AB       jp z, doModuleInfo
2888+ A794 FE 33            cp '3'
2888+ A796 CA 72 AC       jp z, doNetworkInfo
2889+ A799 FE 34            cp '4'
2889+ A79B CA 71 AD       jp z, doBaudRate
2890+ A79E FE 07            cp 7
2890+ A7A0 28 06          jr z, .exitDiag         ; EDIT (CAPS+1)
2891+ A7A2 FE 0F            cp 15
2891+ A7A4 28 02          jr z, .exitDiag         ; EDIT alternativo
2892+ A7A6 18 DE            jr .diagLoop
2893+ A7A8
2894+ A7A8              .exitDiag
2895+ A7A8                  ; Reactivar log UART al salir
2896+ A7A8 3E 01            ld a, 1
2897+ A7AA 32 7C B4         ld (Uart.log_enabled), a
2898+ A7AD CD 73 95         call renderList
2899+ A7B0 C3 68 98         jp uiLoop
2900+ A7B3
2901+ A7B3 43 6F 6E 6E  .msg_not_conn   db "Connect to a network first!", 0
2901+ A7B7 65 63 74 20
2901+ A7BB 74 6F 20 61
2901+ A7BF 20 6E 65 74
2901+ A7C3 77 6F 72 6B
2901+ A7C7 20 66 69 72
2901+ A7CB 73 74 21 00
2902+ A7CF 3D 3D 3D 20  .msg_diag_title db "=== Diagnostics ===", 0
2902+ A7D3 44 69 61 67
2902+ A7D7 6E 6F 73 74
2902+ A7DB 69 63 73 20
2902+ A7DF 3D 3D 3D 00
2903+ A7E3 31 2E 20 50  .msg_diag_opt1  db "1. Ping test", 0
2903+ A7E7 69 6E 67 20
2903+ A7EB 74 65 73 74
2903+ A7EF 00
2904+ A7F0 32 2E 20 4D  .msg_diag_opt2  db "2. Module info (firmware)", 0
2904+ A7F4 6F 64 75 6C
2904+ A7F8 65 20 69 6E
2904+ A7FC 66 6F 20 28
2904+ A800 66 69 72 6D
2904+ A804 77 61 72 65
2904+ A808 29 00
2905+ A80A 33 2E 20 4E  .msg_diag_opt3  db "3. Network info (IP/MAC)", 0
2905+ A80E 65 74 77 6F
2905+ A812 72 6B 20 69
2905+ A816 6E 66 6F 20
2905+ A81A 28 49 50 2F
2905+ A81E 4D 41 43 29
2905+ A822 00
2906+ A823 34 2E 20 55  .msg_diag_opt4  db "4. UART baud rate", 0
2906+ A827 41 52 54 20
2906+ A82B 62 61 75 64
2906+ A82F 20 72 61 74
2906+ A833 65 00
2907+ A835 50 72 65 73  .msg_diag_exit  db "Press EDIT to exit", 0
2907+ A839 73 20 45 44
2907+ A83D 49 54 20 74
2907+ A841 6F 20 65 78
2907+ A845 69 74 00
2908+ A848
2909+ A848              ; Buffer para respuestas de diagnóstico
2910+ A848 00 00 00...  diag_buffer     ds 64
2911+ A888 00           diag_line       db 0            ; Línea actual en pantalla
2912+ A889
2913+ A889              ; Drena el buffer UART (rápido, sin HALT: evita perder bytes a 115200)
2914+ A889              flushUartBuffer:
2915+ A889                  ; Leer hasta que no haya tráfico durante un margen corto
2916+ A889 11 00 40         ld de, #4000                ; ~0.2-0.3 s de "silencio" según CPU
2917+ A88C              .flushWait
2918+ A88C CD B8 BE         call UartImpl.uartRead      ; Leer todo lo disponible
2919+ A88F 38 06            jr c, .gotByte
2920+ A891 1B               dec de
2921+ A892 7A               ld a, d
2922+ A893 B3               or e
2923+ A894 20 F6            jr nz, .flushWait
2924+ A896 C9               ret
2925+ A897              .gotByte
2926+ A897 11 00 40         ld de, #4000
2927+ A89A 18 F0            jr .flushWait
2928+ A89C
2929+ A89C              ; Lee una línea del ESP hasta CR/LF o timeout (sin HALT)
2930+ A89C              ; CF=1 si hay datos, CF=0 si timeout sin datos
2931+ A89C              readDiagLine:
2932+ A89C 21 48 A8         ld hl, diag_buffer
2933+ A89F 0E 3C            ld c, 60                    ; Max 60 caracteres
2934+ A8A1 11 FF FF         ld de, #FFFF                ; Timeout inicial (~1 s aprox)
2935+ A8A4
2936+ A8A4              .readLoop
2937+ A8A4 CD B8 BE         call UartImpl.uartRead
2938+ A8A7 38 08            jr c, .gotByte
2939+ A8A9
2940+ A8A9 1B               dec de
2941+ A8AA 7A               ld a, d
2942+ A8AB B3               or e
2943+ A8AC 20 F6            jr nz, .readLoop
2944+ A8AE
2945+ A8AE                  ; Timeout sin datos
2946+ A8AE AF               xor a
2947+ A8AF 77               ld (hl), a
2948+ A8B0 C9               ret                         ; CF=0
2949+ A8B1
2950+ A8B1              .gotByte
2951+ A8B1                  ; Al recibir datos, reducir timeout para cerrar la línea si falta terminador
2952+ A8B1 11 00 20         ld de, #2000
2953+ A8B4
2954+ A8B4                  ; CR o LF = fin de línea
2955+ A8B4 FE 0D            cp 13
2956+ A8B6 28 09            jr z, .endLine
2957+ A8B8 FE 0A            cp 10
2958+ A8BA 28 05            jr z, .endLine
2959+ A8BC
2960+ A8BC                  ; Guardar carácter
2961+ A8BC 77               ld (hl), a
2962+ A8BD 23               inc hl
2963+ A8BE 0D               dec c
2964+ A8BF 20 E3            jr nz, .readLoop
2965+ A8C1
2966+ A8C1              .endLine
2967+ A8C1 AF               xor a
2968+ A8C2 77               ld (hl), a                  ; Terminar string
2969+ A8C3 37               scf                         ; CF=1, hay datos
2970+ A8C4 C9               ret
2971+ A8C5
2972+ A8C5              ; Lee una linea con espera inicial larga (para consultas que a veces tardan)
2973+ A8C5              ; CF=1 si hay datos, CF=0 si timeout sin datos
2974+ A8C5              readDiagLineLong:
2975+ A8C5 21 48 A8         ld hl, diag_buffer
2976+ A8C8 0E 3C            ld c, 60
2977+ A8CA
2978+ A8CA                  ; Espera el primer byte con timeout largo
2979+ A8CA CD F6 B3         call Uart.readTimeoutLong
2980+ A8CD 30 14            jr nc, .timeout
2981+ A8CF
2982+ A8CF              .readLoop
2983+ A8CF                  ; CR o LF = fin de linea
2984+ A8CF FE 0D            cp 13
2985+ A8D1 28 14            jr z, .endLine
2986+ A8D3 FE 0A            cp 10
2987+ A8D5 28 10            jr z, .endLine
2988+ A8D7
2989+ A8D7                  ; Guardar caracter
2990+ A8D7 77               ld (hl), a
2991+ A8D8 23               inc hl
2992+ A8D9 0D               dec c
2993+ A8DA 28 0B            jr z, .endLine
2994+ A8DC
2995+ A8DC                  ; Leer siguiente byte con timeout medio (más tiempo para Next)
2996+ A8DC CD E6 B3         call Uart.readTimeoutMedium
2997+ A8DF 30 06            jr nc, .endLine
2998+ A8E1 18 EC            jr .readLoop
2999+ A8E3
3000+ A8E3              .timeout
3001+ A8E3 AF               xor a
3002+ A8E4 77               ld (hl), a
3003+ A8E5 B7               or a                        ; CF=0
3004+ A8E6 C9               ret
3005+ A8E7
3006+ A8E7              .endLine
3007+ A8E7 AF               xor a
3008+ A8E8 77               ld (hl), a
3009+ A8E9 37               scf
3010+ A8EA C9               ret
3011+ A8EB
3012+ A8EB              ; Muestra diag_buffer en la línea actual y avanza
3013+ A8EB              showDiagLine:
3014+ A8EB 3A 88 A8         ld a, (diag_line)
3015+ A8EE 67               ld h, a
3016+ A8EF 2E 01            ld l, 1                     ; Columna 1
3017+ A8F1 22 4C 82         ld (Display.coords), hl
3018+ A8F4 21 48 A8         ld hl, diag_buffer
3019+ A8F7 CD 30 80         call Display.putStr
3020+ A8FA 3A 88 A8         ld a, (diag_line)
3021+ A8FD 3C               inc a
3022+ A8FE 32 88 A8         ld (diag_line), a
3023+ A901 C9               ret
3024+ A902
3025+ A902              ; ------------------------------
3026+ A902              ; Ping test
3027+ A902              ; ------------------------------
3028+ A902              MAX_IP_LEN = 15                 ; xxx.xxx.xxx.xxx
3029+ A902
3030+ A902              ; Buffer para IP (persistente entre llamadas)
3031+ A902 00 00 00...  ping_ip_buffer  ds MAX_IP_LEN + 1   ; 16 bytes para IP + null
3032+ A912 00           ping_ip_len     db 0                ; Longitud actual
3033+ A913
3034+ A913              ; Inicializar IP por defecto (se llama una vez)
3035+ A913              initPingIP:
3036+ A913 21 24 A9         ld hl, .default_ip
3037+ A916 11 02 A9         ld de, ping_ip_buffer
3038+ A919 01 08 00         ld bc, 8                    ; "8.8.8.8" + null
3039+ A91C ED B0            ldir
3040+ A91E 3E 07            ld a, 7
3041+ A920 32 12 A9         ld (ping_ip_len), a
3042+ A923 C9               ret
3043+ A924 38 2E 38 2E  .default_ip db "8.8.8.8", 0
3043+ A928 38 2E 38 00
3044+ A92C
3045+ A92C              doPing:
3046+ A92C                  ; Inicializar IP por defecto si está vacía
3047+ A92C 3A 12 A9         ld a, (ping_ip_len)
3048+ A92F A7               and a
3049+ A930 20 03            jr nz, .skipInit
3050+ A932 CD 13 A9         call initPingIP
3051+ A935              .skipInit
3052+ A935
3053+ A935                  ; Deshabilitar log UART durante diagnóstico
3054+ A935 AF               xor a
3055+ A936 32 7C B4         ld (Uart.log_enabled), a
3056+ A939
3057+ A939 CD 8B 94         call topClean
3058+ A93C
3059+ A93C                  ; Mostrar título y prompt
3060+ A93C                  gotoXY 1, 3
3060+ A93C 21 01 03    >    ld hl, 1 or (3<<8)
3060+ A93F 22 4C 82    >    ld (Display.coords), hl
3061+ A942 21 58 AB         ld hl, .msg_ping_title
3062+ A945 CD 30 80         call Display.putStr
3063+ A948
3064+ A948                  gotoXY 1, 5
3064+ A948 21 01 05    >    ld hl, 1 or (5<<8)
3064+ A94B 22 4C 82    >    ld (Display.coords), hl
3065+ A94E 21 6A AB         ld hl, .msg_ip_prompt
3066+ A951 CD 30 80         call Display.putStr
3067+ A954
3068+ A954                  gotoXY 1, 9
3068+ A954 21 01 09    >    ld hl, 1 or (9<<8)
3068+ A957 22 4C 82    >    ld (Display.coords), hl
3069+ A95A 21 7C AB         ld hl, .msg_ping_help
3070+ A95D CD 30 80         call Display.putStr
3071+ A960
3072+ A960              .drawIP
3073+ A960                  ; Dibujar IP actual
3074+ A960                  gotoXY 1, 7
3074+ A960 21 01 07    >    ld hl, 1 or (7<<8)
3074+ A963 22 4C 82    >    ld (Display.coords), hl
3075+ A966 21 02 A9         ld hl, ping_ip_buffer
3076+ A969 CD 30 80         call Display.putStr
3077+ A96C
3078+ A96C                  ; Borrar resto de línea (MAX_IP_LEN - len espacios)
3079+ A96C 3E 0F            ld a, MAX_IP_LEN
3080+ A96E 21 12 A9         ld hl, ping_ip_len
3081+ A971 96               sub (hl)                    ; A = 15 - len
3082+ A972 28 0B            jr z, .noSpaces
3083+ A974 3C               inc a                       ; +1 para el cursor
3084+ A975 47               ld b, a
3085+ A976              .clearSpaces
3086+ A976 C5               push bc
3087+ A977 3E 20            ld a, ' '
3088+ A979 CD 46 80         call Display.putC
3089+ A97C C1               pop bc
3090+ A97D 10 F7            djnz .clearSpaces
3091+ A97F              .noSpaces
3092+ A97F
3093+ A97F                  ; Mostrar cursor
3094+ A97F 3A 12 A9         ld a, (ping_ip_len)
3095+ A982 3C               inc a                       ; Columna 1-based
3096+ A983 6F               ld l, a
3097+ A984 26 07            ld h, 7
3098+ A986 22 4C 82         ld (Display.coords), hl
3099+ A989 3E 5F            ld a, '_'
3100+ A98B CD 46 80         call Display.putC
3101+ A98E
3102+ A98E              .waitIPKey
3103+ A98E 06 05            ld b, 5
3104+ A990              .waitIPLoop
3105+ A990 76               halt
3106+ A991 10 FD            djnz .waitIPLoop
3107+ A993
3108+ A993 CD 35 B5         call Keyboard.inKeyNoWait
3109+ A996 A7               and a
3110+ A997 28 F5            jr z, .waitIPKey
3111+ A999
3112+ A999                  ; EDIT = cancelar
3113+ A999 FE 07            cp 7
3113+ A99B CA 7B AA       jp z, .pingCancel
3114+ A99E FE 0F            cp 15
3114+ A9A0 CA 7B AA       jp z, .pingCancel
3115+ A9A3
3116+ A9A3                  ; ENTER = ejecutar ping
3117+ A9A3 FE 0D            cp 13
3117+ A9A5 CA 7E AA       jp z, .doPingNow
3118+ A9A8
3119+ A9A8                  ; Backspace = borrar
3120+ A9A8 FE 0C            cp Keyboard.KEY_BS
3120+ A9AA CA 64 AA       jp z, .ipBackspace
3121+ A9AD
3122+ A9AD                  ; Punto manual
3123+ A9AD FE 2E            cp '.'
3124+ A9AF CA EC A9         jp z, .ipTryAddDot
3125+ A9B2
3126+ A9B2                  ; Solo permitir dígitos (0-9)
3127+ A9B2 FE 30            cp '0'
3128+ A9B4 38 D8            jr c, .waitIPKey            ; < '0'
3129+ A9B6 FE 3A            cp '9' + 1
3130+ A9B8 30 D4            jr nc, .waitIPKey           ; > '9'
3131+ A9BA
3132+ A9BA                  ; Es un dígito - verificar si cabe
3133+ A9BA 47               ld b, a                     ; Guardar dígito
3134+ A9BB 3A 12 A9         ld a, (ping_ip_len)
3135+ A9BE FE 0F            cp MAX_IP_LEN
3136+ A9C0 D2 8E A9         jp nc, .waitIPKey           ; Buffer lleno
3137+ A9C3
3138+ A9C3                  ; Contar dígitos en octeto actual
3139+ A9C3 C5               push bc
3140+ A9C4 CD 33 AA         call .countOctetDigits
3141+ A9C7 C1               pop bc
3142+ A9C8 FE 03            cp 3
3143+ A9CA 38 19            jr c, .ipAddDigit           ; < 3 dígitos, añadir normal
3144+ A9CC
3145+ A9CC                  ; Ya hay 3 dígitos - necesitamos punto primero
3146+ A9CC                  ; Verificar si podemos añadir punto (max 3 puntos)
3147+ A9CC C5               push bc
3148+ A9CD CD 51 AA         call .countDots
3149+ A9D0 C1               pop bc
3150+ A9D1 FE 03            cp 3
3151+ A9D3 D2 8E A9         jp nc, .waitIPKey           ; Ya hay 3 puntos, no más dígitos
3152+ A9D6
3153+ A9D6                  ; Verificar espacio para 2 caracteres (punto + dígito)
3154+ A9D6 3A 12 A9         ld a, (ping_ip_len)
3155+ A9D9 FE 0E            cp MAX_IP_LEN - 1
3156+ A9DB D2 8E A9         jp nc, .waitIPKey           ; No hay espacio para 2 chars
3157+ A9DE
3158+ A9DE                  ; Añadir punto automático
3159+ A9DE C5               push bc
3160+ A9DF 3E 2E            ld a, '.'
3161+ A9E1 CD 1B AA         call .addCharToIP
3162+ A9E4 C1               pop bc
3163+ A9E5
3164+ A9E5              .ipAddDigit
3165+ A9E5                  ; Añadir el dígito
3166+ A9E5 78               ld a, b
3167+ A9E6 CD 1B AA         call .addCharToIP
3168+ A9E9 C3 60 A9         jp .drawIP
3169+ A9EC
3170+ A9EC              .ipTryAddDot
3171+ A9EC                  ; No permitir punto al inicio
3172+ A9EC 3A 12 A9         ld a, (ping_ip_len)
3173+ A9EF A7               and a
3174+ A9F0 CA 8E A9         jp z, .waitIPKey
3175+ A9F3
3176+ A9F3                  ; No permitir dos puntos seguidos
3177+ A9F3 21 02 A9         ld hl, ping_ip_buffer
3178+ A9F6 16 00            ld d, 0
3179+ A9F8 5F               ld e, a
3180+ A9F9 19               add hl, de
3181+ A9FA 2B               dec hl                      ; Último carácter
3182+ A9FB 7E               ld a, (hl)
3183+ A9FC FE 2E            cp '.'
3184+ A9FE CA 8E A9         jp z, .waitIPKey            ; Último es punto, no añadir otro
3185+ AA01
3186+ AA01                  ; Verificar máximo 3 puntos
3187+ AA01 C5               push bc
3188+ AA02 CD 51 AA         call .countDots
3189+ AA05 C1               pop bc
3190+ AA06 FE 03            cp 3
3191+ AA08 D2 8E A9         jp nc, .waitIPKey           ; Ya hay 3 puntos
3192+ AA0B
3193+ AA0B                  ; Verificar espacio
3194+ AA0B 3A 12 A9         ld a, (ping_ip_len)
3195+ AA0E FE 0F            cp MAX_IP_LEN
3196+ AA10 D2 8E A9         jp nc, .waitIPKey
3197+ AA13
3198+ AA13                  ; Añadir punto
3199+ AA13 3E 2E            ld a, '.'
3200+ AA15 CD 1B AA         call .addCharToIP
3201+ AA18 C3 60 A9         jp .drawIP
3202+ AA1B
3203+ AA1B              ; Añade un carácter al buffer IP
3204+ AA1B              .addCharToIP
3205+ AA1B F5               push af
3206+ AA1C 3A 12 A9         ld a, (ping_ip_len)
3207+ AA1F 21 02 A9         ld hl, ping_ip_buffer
3208+ AA22 16 00            ld d, 0
3209+ AA24 5F               ld e, a
3210+ AA25 19               add hl, de
3211+ AA26 F1               pop af
3212+ AA27 77               ld (hl), a
3213+ AA28 23               inc hl
3214+ AA29 AF               xor a
3215+ AA2A 77               ld (hl), a                  ; Null terminator
3216+ AA2B 3A 12 A9         ld a, (ping_ip_len)
3217+ AA2E 3C               inc a
3218+ AA2F 32 12 A9         ld (ping_ip_len), a
3219+ AA32 C9               ret
3220+ AA33
3221+ AA33              ; Cuenta dígitos en el octeto actual (desde último punto)
3222+ AA33              ; Devuelve A = número de dígitos
3223+ AA33              .countOctetDigits
3224+ AA33 3A 12 A9         ld a, (ping_ip_len)
3225+ AA36 A7               and a
3226+ AA37 C8               ret z                       ; Vacío, 0 dígitos
3227+ AA38
3228+ AA38                  ; Recorrer desde el final hacia atrás
3229+ AA38 47               ld b, a                     ; B = longitud
3230+ AA39 21 02 A9         ld hl, ping_ip_buffer
3231+ AA3C 16 00            ld d, 0
3232+ AA3E 5F               ld e, a
3233+ AA3F 19               add hl, de
3234+ AA40 2B               dec hl                      ; HL apunta al último carácter
3235+ AA41 0E 00            ld c, 0                     ; Contador de dígitos
3236+ AA43
3237+ AA43              .countLoop
3238+ AA43 7E               ld a, (hl)
3239+ AA44 FE 2E            cp '.'
3240+ AA46 28 07            jr z, .countDone            ; Encontrado punto, terminar
3241+ AA48 0C               inc c                       ; Contar dígito
3242+ AA49 05               dec b
3243+ AA4A 28 03            jr z, .countDone            ; Llegamos al inicio
3244+ AA4C 2B               dec hl
3245+ AA4D 18 F4            jr .countLoop
3246+ AA4F
3247+ AA4F              .countDone
3248+ AA4F 79               ld a, c
3249+ AA50 C9               ret
3250+ AA51
3251+ AA51              ; Cuenta puntos en el buffer
3252+ AA51              ; Devuelve A = número de puntos
3253+ AA51              .countDots
3254+ AA51 21 02 A9         ld hl, ping_ip_buffer
3255+ AA54 0E 00            ld c, 0                     ; Contador de puntos
3256+ AA56              .dotsLoop
3257+ AA56 7E               ld a, (hl)
3258+ AA57 A7               and a
3259+ AA58 28 08            jr z, .dotsDone             ; Fin de string
3260+ AA5A FE 2E            cp '.'
3261+ AA5C 20 01            jr nz, .dotsNext
3262+ AA5E 0C               inc c
3263+ AA5F              .dotsNext
3264+ AA5F 23               inc hl
3265+ AA60 18 F4            jr .dotsLoop
3266+ AA62              .dotsDone
3267+ AA62 79               ld a, c
3268+ AA63 C9               ret
3269+ AA64
3270+ AA64              .ipBackspace
3271+ AA64 3A 12 A9         ld a, (ping_ip_len)
3272+ AA67 A7               and a
3273+ AA68 CA 8E A9         jp z, .waitIPKey            ; Ya vacío
3274+ AA6B 3D               dec a
3275+ AA6C 32 12 A9         ld (ping_ip_len), a
3276+ AA6F 21 02 A9         ld hl, ping_ip_buffer
3277+ AA72 16 00            ld d, 0
3278+ AA74 5F               ld e, a
3279+ AA75 19               add hl, de
3280+ AA76 AF               xor a
3281+ AA77 77               ld (hl), a
3282+ AA78 C3 60 A9         jp .drawIP
3283+ AA7B
3284+ AA7B              .pingCancel
3285+ AA7B C3 10 A7         jp showDiagnostics
3286+ AA7E
3287+ AA7E              .doPingNow
3288+ AA7E                  ; Verificar que hay algo escrito
3289+ AA7E 3A 12 A9         ld a, (ping_ip_len)
3290+ AA81 A7               and a
3291+ AA82 CA 8E A9         jp z, .waitIPKey            ; No permitir IP vacía
3292+ AA85
3293+ AA85 CD 8B 94         call topClean
3294+ AA88                  gotoXY 1, 3
3294+ AA88 21 01 03    >    ld hl, 1 or (3<<8)
3294+ AA8B 22 4C 82    >    ld (Display.coords), hl
3295+ AA8E 21 94 AB         ld hl, .msg_pinging
3296+ AA91 CD 30 80         call Display.putStr
3297+ AA94
3298+ AA94                  ; Mostrar IP que se va a hacer ping
3299+ AA94 21 02 A9         ld hl, ping_ip_buffer
3300+ AA97 CD 30 80         call Display.putStr
3301+ AA9A 21 9D AB         ld hl, .msg_dots
3302+ AA9D CD 30 80         call Display.putStr
3303+ AAA0
3304+ AAA0                  ; Inicializar línea de salida
3305+ AAA0 3E 05            ld a, 5
3306+ AAA2 32 88 A8         ld (diag_line), a
3307+ AAA5
3308+ AAA5                  ; Drenar buffer antes de enviar comando
3309+ AAA5 CD 89 A8         call flushUartBuffer
3310+ AAA8
3311+ AAA8                  ; Construir y enviar comando: AT+PING="ip"
3312+ AAA8 21 A1 AB         ld hl, .cmd_ping_start
3313+ AAAB CD C9 8E         call Wifi.espSendZ
3314+ AAAE 21 02 A9         ld hl, ping_ip_buffer
3315+ AAB1 CD C9 8E         call Wifi.espSendZ
3316+ AAB4 21 AB AB         ld hl, .cmd_ping_end
3317+ AAB7 CD C9 8E         call Wifi.espSendZ
3318+ AABA
3319+ AABA                  ; Leer respuestas
3320+ AABA 0E 14            ld c, 20                    ; Max 20 timeouts
3321+ AABC 06 64            ld b, 100                   ; Límite absoluto: 100 líneas
3322+ AABE              .pingLoop
3323+ AABE C5               push bc
3324+ AABF CD 9C A8         call readDiagLine
3325+ AAC2 C1               pop bc
3326+ AAC3 30 79            jr nc, .pingTimeout         ; CF=0 = timeout real
3327+ AAC5
3328+ AAC5                  ; Decrementar límite absoluto
3329+ AAC5 05               dec b
3330+ AAC6 28 7A            jr z, .pingDone             ; Límite alcanzado
3331+ AAC8
3332+ AAC8                  ; CF=1 = hay línea
3333+ AAC8 3A 48 A8         ld a, (diag_buffer)
3334+ AACB A7               and a
3335+ AACC 28 F0            jr z, .pingLoop             ; Línea vacía
3336+ AACE
3337+ AACE                  ; Verificar si es "OK" o "ERROR" -> fin
3338+ AACE FE 4F            cp 'O'
3339+ AAD0 28 70            jr z, .pingDone
3340+ AAD2 FE 45            cp 'E'
3341+ AAD4 28 6C            jr z, .pingDone             ; ERROR también termina
3342+ AAD6
3343+ AAD6                  ; Filtrar ruido y eco
3344+ AAD6 FE 41            cp 'A'
3344+ AAD8 28 E4          jr z, .pingLoop    ; Eco AT...
3345+ AADA FE 30            cp '0'
3345+ AADC 28 E0          jr z, .pingLoop
3346+ AADE FE 31            cp '1'
3346+ AAE0 28 DC          jr z, .pingLoop
3347+ AAE2 FE 43            cp 'C'
3347+ AAE4 28 D8          jr z, .pingLoop    ; CONNECT, CLOSED
3348+ AAE6 FE 4C            cp 'L'
3348+ AAE8 28 D4          jr z, .pingLoop    ; LAIN
3349+ AAEA FE 53            cp 'S'
3349+ AAEC 28 D0          jr z, .pingLoop    ; SEND OK
3350+ AAEE
3351+ AAEE                  ; Si empieza con +, verificar si es +IPD
3352+ AAEE FE 2B            cp '+'
3353+ AAF0 20 47            jr nz, .pingShow
3354+ AAF2 3A 49 A8         ld a, (diag_buffer + 1)
3355+ AAF5 FE 49            cp 'I'                      ; +IPD -> ignorar
3356+ AAF7 28 C5            jr z, .pingLoop
3357+ AAF9
3358+ AAF9                  ; Verificar si es +timeout (error) o +numero (éxito)
3359+ AAF9 FE 74            cp 't'                      ; +timeout
3360+ AAFB 28 24            jr z, .pingShowTimeout
3361+ AAFD
3362+ AAFD                  ; Formateo ping exitoso: Response time: XX ms
3363+ AAFD 3A 88 A8         ld a, (diag_line)
3363+ AB00 67             ld h, a
3363+ AB01 2E 01          ld l, 1
3363+ AB03 22 4C 82       ld (Display.coords), hl
3364+ AB06 21 AF AB         ld hl, .msg_time_lbl
3365+ AB09 CD 30 80         call Display.putStr
3366+ AB0C 21 49 A8         ld hl, diag_buffer + 1      ; Saltarse el '+'
3367+ AB0F CD 30 80         call Display.putStr
3368+ AB12 21 BF AB         ld hl, .msg_time_ms
3369+ AB15 CD 30 80         call Display.putStr
3370+ AB18 3A 88 A8         ld a, (diag_line)
3370+ AB1B 3C             inc a
3370+ AB1C 32 88 A8       ld (diag_line), a
3371+ AB1F 18 9D            jr .pingLoop
3372+ AB21
3373+ AB21              .pingShowTimeout
3374+ AB21                  ; Mostrar "Request timed out"
3375+ AB21 3A 88 A8         ld a, (diag_line)
3375+ AB24 67             ld h, a
3375+ AB25 2E 01          ld l, 1
3375+ AB27 22 4C 82       ld (Display.coords), hl
3376+ AB2A 21 C3 AB         ld hl, .msg_timeout
3377+ AB2D CD 30 80         call Display.putStr
3378+ AB30 3A 88 A8         ld a, (diag_line)
3378+ AB33 3C             inc a
3378+ AB34 32 88 A8       ld (diag_line), a
3379+ AB37 18 85            jr .pingLoop
3380+ AB39
3381+ AB39              .pingShow
3382+ AB39 CD EB A8         call showDiagLine
3383+ AB3C 18 80            jr .pingLoop
3384+ AB3E
3385+ AB3E              .pingTimeout
3386+ AB3E 0D               dec c
3387+ AB3F C2 BE AA         jp nz, .pingLoop
3388+ AB42
3389+ AB42              .pingDone
3390+ AB42                  gotoXY 1, 12
3390+ AB42 21 01 0C    >    ld hl, 1 or (12<<8)
3390+ AB45 22 4C 82    >    ld (Display.coords), hl
3391+ AB48 21 43 B2         ld hl, msg_press_key
3392+ AB4B CD 30 80         call Display.putStr
3393+ AB4E              .waitPingKey
3394+ AB4E 76               halt
3395+ AB4F CD 2E B5         call Keyboard.inKey
3396+ AB52 A7               and a
3397+ AB53 28 F9            jr z, .waitPingKey
3398+ AB55 C3 10 A7         jp showDiagnostics
3399+ AB58
3400+ AB58 3D 3D 3D 20  .msg_ping_title  db "=== Ping Test ===", 0
3400+ AB5C 50 69 6E 67
3400+ AB60 20 54 65 73
3400+ AB64 74 20 3D 3D
3400+ AB68 3D 00
3401+ AB6A 45 6E 74 65  .msg_ip_prompt   db "Enter IP address:", 0
3401+ AB6E 72 20 49 50
3401+ AB72 20 61 64 64
3401+ AB76 72 65 73 73
3401+ AB7A 3A 00
3402+ AB7C 45 4E 54 45  .msg_ping_help   db "ENTER=ping, EDIT=cancel", 0
3402+ AB80 52 3D 70 69
3402+ AB84 6E 67 2C 20
3402+ AB88 45 44 49 54
3402+ AB8C 3D 63 61 6E
3402+ AB90 63 65 6C 00
3403+ AB94 50 69 6E 67  .msg_pinging     db "Pinging ", 0
3403+ AB98 69 6E 67 20
3403+ AB9C 00
3404+ AB9D 2E 2E 2E 00  .msg_dots        db "...", 0
3405+ ABA1 41 54 2B 50  .cmd_ping_start  db "AT+PING=", '"', 0
3405+ ABA5 49 4E 47 3D
3405+ ABA9 22 00
3406+ ABAB 22 0D 0A 00  .cmd_ping_end    db '"', 13, 10, 0
3407+ ABAF 52 65 73 70  .msg_time_lbl    db "Response time: ", 0
3407+ ABB3 6F 6E 73 65
3407+ ABB7 20 74 69 6D
3407+ ABBB 65 3A 20 00
3408+ ABBF 20 6D 73 00  .msg_time_ms     db " ms", 0
3409+ ABC3 52 65 71 75  .msg_timeout     db "Request timed out", 0
3409+ ABC7 65 73 74 20
3409+ ABCB 74 69 6D 65
3409+ ABCF 64 20 6F 75
3409+ ABD3 74 00
3410+ ABD5
3411+ ABD5              ; ------------------------------
3412+ ABD5              ; Module info (firmware version)
3413+ ABD5              ; ------------------------------
3414+ ABD5              doModuleInfo:
3415+ ABD5                  ; Deshabilitar log UART
3416+ ABD5 AF               xor a
3417+ ABD6 32 7C B4         ld (Uart.log_enabled), a
3418+ ABD9
3419+ ABD9 CD 8B 94         call topClean
3420+ ABDC                  gotoXY 1, 3
3420+ ABDC 21 01 03    >    ld hl, 1 or (3<<8)
3420+ ABDF 22 4C 82    >    ld (Display.coords), hl
3421+ ABE2 21 58 AC         ld hl, .msg_module_title
3422+ ABE5 CD 30 80         call Display.putStr
3423+ ABE8
3424+ ABE8                  ; Inicializar línea de salida
3425+ ABE8 3E 05            ld a, 5
3426+ ABEA 32 88 A8         ld (diag_line), a
3427+ ABED
3428+ ABED                  ; Drenar buffer antes de enviar comando
3429+ ABED CD 89 A8         call flushUartBuffer
3430+ ABF0
3431+ ABF0                  ; Enviar AT+GMR
3432+ ABF0 21 69 AC         ld hl, .cmd_gmr
3433+ ABF3 CD C9 8E         call Wifi.espSendZ
3434+ ABF6
3435+ ABF6                  ; Leer y mostrar respuestas
3436+ ABF6 0E 14            ld c, 20                    ; Max 20 timeouts
3437+ ABF8 06 64            ld b, 100                   ; Límite absoluto: 100 líneas
3438+ ABFA              .gmrLoop
3439+ ABFA C5               push bc
3440+ ABFB CD 9C A8         call readDiagLine
3441+ ABFE C1               pop bc
3442+ ABFF 30 3E            jr nc, .gmrTimeout          ; CF=0 = timeout real
3443+ AC01
3444+ AC01                  ; Decrementar límite absoluto
3445+ AC01 05               dec b
3446+ AC02 28 3E            jr z, .gmrDone              ; Límite alcanzado
3447+ AC04
3448+ AC04                  ; CF=1 = hay línea
3449+ AC04 3A 48 A8         ld a, (diag_buffer)
3450+ AC07 A7               and a
3451+ AC08 28 F0            jr z, .gmrLoop              ; Línea vacía, no cuenta como timeout
3452+ AC0A
3453+ AC0A                  ; Verificar si es "OK" -> fin
3454+ AC0A FE 4F            cp 'O'
3455+ AC0C 28 34            jr z, .gmrDone
3456+ AC0E
3457+ AC0E                  ; Filtrar ruido de red y ECO (AT+GMR vs AT version...)
3458+ AC0E FE 41            cp 'A'
3459+ AC10 20 10            jr nz, .checkOther
3460+ AC12                  ; Empieza por A. Ver si es "AT+" (Eco) o "AT v..." (Info)
3461+ AC12 3A 49 A8         ld a, (diag_buffer + 1)
3462+ AC15 FE 54            cp 'T'
3463+ AC17 20 21            jr nz, .showInfo      ; No es AT...
3464+ AC19 3A 4A A8         ld a, (diag_buffer + 2)
3465+ AC1C FE 2B            cp '+'
3466+ AC1E 28 DA            jr z, .gmrLoop        ; Es AT+... (Eco) -> Ignorar
3467+ AC20 18 18            jr .showInfo          ; Es AT ... (Info) -> Mostrar
3468+ AC22
3469+ AC22              .checkOther
3470+ AC22 FE 2B            cp '+'
3470+ AC24 28 D4          jr z, .gmrLoop     ; +IPD, etc
3471+ AC26 FE 30            cp '0'
3471+ AC28 28 D0          jr z, .gmrLoop     ; 0,CONNECT
3472+ AC2A FE 31            cp '1'
3472+ AC2C 28 CC          jr z, .gmrLoop     ; 1,CONNECT
3473+ AC2E FE 43            cp 'C'
3473+ AC30 28 C8          jr z, .gmrLoop     ; CONNECT, CLOSED
3474+ AC32 FE 4C            cp 'L'
3474+ AC34 28 C4          jr z, .gmrLoop     ; LAIN
3475+ AC36 FE 53            cp 'S'
3475+ AC38 28 C0          jr z, .gmrLoop     ; SEND OK
3476+ AC3A
3477+ AC3A              .showInfo
3478+ AC3A                  ; Línea válida - mostrar
3479+ AC3A CD EB A8         call showDiagLine
3480+ AC3D 18 BB            jr .gmrLoop                 ; Seguir sin decrementar
3481+ AC3F
3482+ AC3F              .gmrTimeout
3483+ AC3F 0D               dec c
3484+ AC40 20 B8            jr nz, .gmrLoop
3485+ AC42
3486+ AC42              .gmrDone
3487+ AC42                  gotoXY 1, 12
3487+ AC42 21 01 0C    >    ld hl, 1 or (12<<8)
3487+ AC45 22 4C 82    >    ld (Display.coords), hl
3488+ AC48 21 43 B2         ld hl, msg_press_key
3489+ AC4B CD 30 80         call Display.putStr
3490+ AC4E              .waitGmrKey
3491+ AC4E 76               halt
3492+ AC4F CD 2E B5         call Keyboard.inKey
3493+ AC52 A7               and a
3494+ AC53 28 F9            jr z, .waitGmrKey
3495+ AC55 C3 10 A7         jp showDiagnostics
3496+ AC58
3497+ AC58 4D 6F 64 75  .msg_module_title db "Module firmware:", 0
3497+ AC5C 6C 65 20 66
3497+ AC60 69 72 6D 77
3497+ AC64 61 72 65 3A
3497+ AC68 00
3498+ AC69 41 54 2B 47  .cmd_gmr          db "AT+GMR", 13, 10, 0
3498+ AC6D 4D 52 0D 0A
3498+ AC71 00
3499+ AC72
3500+ AC72              ; ------------------------------
3501+ AC72              ; Network info (IP/MAC)
3502+ AC72              ; ------------------------------
3503+ AC72              doNetworkInfo:
3504+ AC72                  ; Deshabilitar log UART
3505+ AC72 AF               xor a
3506+ AC73 32 7C B4         ld (Uart.log_enabled), a
3507+ AC76
3508+ AC76 CD 8B 94         call topClean
3509+ AC79                  gotoXY 1, 3
3509+ AC79 21 01 03    >    ld hl, 1 or (3<<8)
3509+ AC7C 22 4C 82    >    ld (Display.coords), hl
3510+ AC7F 21 35 AD         ld hl, .msg_net_title
3511+ AC82 CD 30 80         call Display.putStr
3512+ AC85
3513+ AC85                  ; Inicializar línea de salida
3514+ AC85 3E 05            ld a, 5
3515+ AC87 32 88 A8         ld (diag_line), a
3516+ AC8A
3517+ AC8A                  ; Drenar buffer antes de enviar comando
3518+ AC8A CD 89 A8         call flushUartBuffer
3519+ AC8D
3520+ AC8D                  ; Enviar AT+CIFSR
3521+ AC8D 21 4A AD         ld hl, .cmd_cifsr
3522+ AC90 CD C9 8E         call Wifi.espSendZ
3523+ AC93
3524+ AC93                  ; Leer respuestas
3525+ AC93 0E 14            ld c, 20                    ; Max 20 timeouts
3526+ AC95 06 64            ld b, 100                   ; Límite absoluto: 100 líneas
3527+ AC97              .cifsrLoop
3528+ AC97 C5               push bc
3529+ AC98 CD 9C A8         call readDiagLine
3530+ AC9B C1               pop bc
3531+ AC9C 30 64            jr nc, .cifsrTimeout        ; CF=0 = timeout real
3532+ AC9E
3533+ AC9E                  ; Decrementar límite absoluto
3534+ AC9E 05               dec b
3535+ AC9F 28 64            jr z, .cifsrDone            ; Límite alcanzado
3536+ ACA1
3537+ ACA1                  ; CF=1 = hay línea
3538+ ACA1 3A 48 A8         ld a, (diag_buffer)
3539+ ACA4 A7               and a
3540+ ACA5 28 F0            jr z, .cifsrLoop            ; Línea vacía, no cuenta
3541+ ACA7
3542+ ACA7                  ; Verificar si es "OK" -> fin
3543+ ACA7 FE 4F            cp 'O'
3544+ ACA9 28 5A            jr z, .cifsrDone
3545+ ACAB
3546+ ACAB                  ; Filtrar ruido de red y ECO
3547+ ACAB FE 41            cp 'A'
3547+ ACAD 28 E8          jr z, .cifsrLoop   ; Ignorar eco AT...
3548+ ACAF FE 30            cp '0'
3548+ ACB1 28 E4          jr z, .cifsrLoop
3549+ ACB3 FE 31            cp '1'
3549+ ACB5 28 E0          jr z, .cifsrLoop
3550+ ACB7 FE 43            cp 'C'
3550+ ACB9 28 DC          jr z, .cifsrLoop   ; CONNECT, CLOSED
3551+ ACBB FE 4C            cp 'L'
3551+ ACBD 28 D8          jr z, .cifsrLoop   ; LAIN
3552+ ACBF FE 53            cp 'S'
3552+ ACC1 28 D4          jr z, .cifsrLoop   ; SEND OK
3553+ ACC3
3554+ ACC3                  ; Si empieza con +, verificar que no sea +IPD
3555+ ACC3 FE 2B            cp '+'
3556+ ACC5 20 D0            jr nz, .cifsrLoop           ; No empieza con +, ignorar
3557+ ACC7
3558+ ACC7                  ; --- FORMATEO IP/MAC ---
3559+ ACC7                  ; Buffer contiene algo como +CIFSR:STAIP,"192.168.1.5"
3560+ ACC7                  ; Pos 0: +
3561+ ACC7                  ; Pos 7: S (de STA)
3562+ ACC7                  ; Pos 10: I (de IP) o M (de MAC)
3563+ ACC7
3564+ ACC7 3A 49 A8         ld a, (diag_buffer + 1)     ; Verificar CIFSR
3565+ ACCA FE 43            cp 'C'
3565+ ACCC 20 C9          jr nz, .cifsrLoop  ; +IPD o similar -> fuera
3566+ ACCE
3567+ ACCE 3A 52 A8         ld a, (diag_buffer + 10)    ; Carácter discriminador
3568+ ACD1 FE 49            cp 'I'
3568+ ACD3 28 06          jr z, .isIP
3569+ ACD5 FE 4D            cp 'M'
3569+ ACD7 28 07          jr z, .isMAC
3570+ ACD9 18 BC            jr .cifsrLoop               ; Otro campo (APIP, etc), ignorar o mostrar raw
3571+ ACDB
3572+ ACDB              .isIP
3573+ ACDB 21 55 AD         ld hl, .lbl_ip
3574+ ACDE 18 03            jr .printFmt
3575+ ACE0              .isMAC
3576+ ACE0 21 63 AD         ld hl, .lbl_mac
3577+ ACE3              .printFmt
3578+ ACE3                  ; 1. Posicionar cursor
3579+ ACE3 3A 88 A8         ld a, (diag_line)
3579+ ACE6 57             ld d, a
3579+ ACE7 1E 01          ld e, 1
3580+ ACE9 ED 53 4C 82      ld (Display.coords), de
3581+ ACED
3582+ ACED                  ; 2. Imprimir etiqueta
3583+ ACED CD 30 80         call Display.putStr
3584+ ACF0
3585+ ACF0                  ; 3. Buscar comillas de apertura y cierre para extraer valor
3586+ ACF0 21 48 A8         ld hl, diag_buffer
3587+ ACF3 CD 1B AD         call .findQuote             ; HL apunta al primer char tras la comilla
3588+ ACF6 CD 27 AD         call .printUntilQuote       ; Imprimir hasta la siguiente comilla
3589+ ACF9
3590+ ACF9                  ; 4. Nueva línea
3591+ ACF9 3A 88 A8         ld a, (diag_line)
3591+ ACFC 3C             inc a
3591+ ACFD 32 88 A8       ld (diag_line), a
3592+ AD00 18 95            jr .cifsrLoop               ; Seguir sin decrementar
3593+ AD02
3594+ AD02              .cifsrTimeout
3595+ AD02 0D               dec c
3596+ AD03 20 92            jr nz, .cifsrLoop
3597+ AD05
3598+ AD05              .cifsrDone
3599+ AD05                  gotoXY 1, 12
3599+ AD05 21 01 0C    >    ld hl, 1 or (12<<8)
3599+ AD08 22 4C 82    >    ld (Display.coords), hl
3600+ AD0B 21 43 B2         ld hl, msg_press_key
3601+ AD0E CD 30 80         call Display.putStr
3602+ AD11              .waitCifsrKey
3603+ AD11 76               halt
3604+ AD12 CD 2E B5         call Keyboard.inKey
3605+ AD15 A7               and a
3606+ AD16 28 F9            jr z, .waitCifsrKey
3607+ AD18 C3 10 A7         jp showDiagnostics
3608+ AD1B
3609+ AD1B              ; Helpers locales para parseo
3610+ AD1B              .findQuote
3611+ AD1B 7E               ld a, (hl)
3612+ AD1C FE 22            cp '"'
3612+ AD1E 28 05          jr z, .foundQ
3613+ AD20 23               inc hl
3614+ AD21 A7               and a
3614+ AD22 C8             ret z               ; Fin de string sin comillas
3615+ AD23 18 F6            jr .findQuote
3616+ AD25              .foundQ
3617+ AD25 23               inc hl                      ; Saltar la comilla
3618+ AD26 C9               ret
3619+ AD27
3620+ AD27              .printUntilQuote
3621+ AD27 7E               ld a, (hl)
3622+ AD28 A7               and a
3622+ AD29 C8             ret z               ; Fin de string (seguridad)
3623+ AD2A FE 22            cp '"'
3623+ AD2C C8             ret z              ; Fin de comillas
3624+ AD2D E5               push hl
3625+ AD2E CD 46 80         call Display.putC
3626+ AD31 E1               pop hl
3627+ AD32 23               inc hl
3628+ AD33 18 F2            jr .printUntilQuote
3629+ AD35
3630+ AD35 4E 65 74 77  .msg_net_title db "Network information:", 0
3630+ AD39 6F 72 6B 20
3630+ AD3D 69 6E 66 6F
3630+ AD41 72 6D 61 74
3630+ AD45 69 6F 6E 3A
3630+ AD49 00
3631+ AD4A 41 54 2B 43  .cmd_cifsr     db "AT+CIFSR", 13, 10, 0
3631+ AD4E 49 46 53 52
3631+ AD52 0D 0A 00
3632+ AD55 49 50 20 41  .lbl_ip        db "IP Address:  ", 0
3632+ AD59 64 64 72 65
3632+ AD5D 73 73 3A 20
3632+ AD61 20 00
3633+ AD63 4D 41 43 20  .lbl_mac       db "MAC Address: ", 0
3633+ AD67 41 64 64 72
3633+ AD6B 65 73 73 3A
3633+ AD6F 20 00
3634+ AD71
3635+ AD71              ; ------------------------------
3636+ AD71              ; UART Baud rate
3637+ AD71              ; ------------------------------
3638+ AD71              doBaudRate:
3639+ AD71 CD 8B 94         call topClean
3640+ AD74                  gotoXY 1, 3
3640+ AD74 21 01 03    >    ld hl, 1 or (3<<8)
3640+ AD77 22 4C 82    >    ld (Display.coords), hl
3641+ AD7A 21 DD AE     	ld hl, msg_baud_title
3642+ AD7D CD 30 80         call Display.putStr
3643+ AD80
3644+ AD80                  ; Inicializar línea de salida
3645+ AD80 3E 05            ld a, 5
3646+ AD82 32 88 A8         ld (diag_line), a
3647+ AD85 AF               xor a
3648+ AD86 32 82 AF         ld (baud_tried_def), a
3649+ AD89 32 83 AF         ld (baud_tried_plain), a
3650+ AD8C 32 84 AF         ld (baud_have_value), a
3651+ AD8F 32 85 AF         ld (baud_saw_error), a
3652+ AD92 32 86 AF         ld (baud_recover_tried), a
3653+ AD95
3654+ AD95
3655+ AD95                  ; Drenar buffer antes de enviar comando
3656+ AD95 CD 89 A8         call flushUartBuffer
3657+ AD98
3658+ AD98              	; Ensure the ESP is in AT command mode (not in pass-through/data mode)
3659+ AD98 CD 25 91     	call Wifi.ensureCommandMode
3660+ AD9B D2 B0 AD     	jp nc, doBaudRate_cmode_ok
3661+ AD9E              	gotoXY 1, 6
3661+ AD9E 21 01 06    >    ld hl, 1 or (6<<8)
3661+ ADA1 22 4C 82    >    ld (Display.coords), hl
3662+ ADA4 21 F1 AE     	ld hl, msg_no_at
3663+ ADA7 CD 30 80     	call Display.putStr
3664+ ADAA CD 4F B0     	call waitAnyKey
3665+ ADAD C3 10 A7     	jp showDiagnostics
3666+ ADB0
3667+ ADB0              doBaudRate_cmode_ok:
3668+ ADB0
3669+ ADB0                  ; Enviar AT+UART_CUR?
3670+ ADB0 21 16 AF         ld hl, cmd_uart_cur
3671+ ADB3 CD C9 8E         call Wifi.espSendZ
3672+ ADB6
3673+ ADB6                  ; Leer respuestas
3674+ ADB6 0E 04            ld c, 4                     ; Max 4 timeouts (cada uno es largo)
3675+ ADB8 06 64            ld b, 100                   ; Límite absoluto: 100 líneas
3676+ ADBA              .baudLoop
3677+ ADBA C5               push bc
3678+ ADBB CD C5 A8         call readDiagLineLong
3679+ ADBE C1               pop bc
3680+ ADBF D2 82 AE         jp nc, .baudTimeout         ; CF=0 = timeout real
3681+ ADC2
3682+ ADC2                  ; Decrementar límite absoluto
3683+ ADC2 05               dec b
3684+ ADC3 CA 86 AE         jp z, .baudDone             ; Límite alcanzado
3685+ ADC6
3686+ ADC6                  ; CF=1 = hay línea
3687+ ADC6 3A 48 A8         ld a, (diag_buffer)
3688+ ADC9 A7               and a
3689+ ADCA CA BA AD         jp z, .baudLoop             ; Línea vacía, no cuenta
3690+ ADCD
3691+ ADCD                  ; Verificar si es "OK" -> fin
3692+ ADCD FE 4F            cp 'O'
3693+ ADCF CA 86 AE         jp z, .baudDone
3694+ ADD2 FE 45            cp 'E'                      ; ERROR -> probar comandos alternativos
3695+ ADD4 C2 3A AE         jp nz, .noErrLine
3696+ ADD7                  ; Registrar que vimos ERROR (si no se obtiene nada, lo mostraremos)
3697+ ADD7 3E 01            ld a, 1
3698+ ADD9 32 85 AF         ld (baud_saw_error), a
3699+ ADDC
3700+ ADDC                  ; First ERROR: try to recover by ensuring AT command mode, then retry CUR once
3701+ ADDC 3A 86 AF         ld a, (baud_recover_tried)
3702+ ADDF A7               and a
3703+ ADE0 C2 02 AE         jp nz, .skipRecover
3704+ ADE3 3E 01            ld a, 1
3705+ ADE5 32 86 AF         ld (baud_recover_tried), a
3706+ ADE8 CD 25 91         call Wifi.ensureCommandMode
3707+ ADEB CD 89 A8         call flushUartBuffer
3708+ ADEE AF               xor a
3709+ ADEF 32 82 AF         ld (baud_tried_def), a
3710+ ADF2 32 83 AF         ld (baud_tried_plain), a
3711+ ADF5 21 16 AF         ld hl, cmd_uart_cur
3712+ ADF8 CD C9 8E         call Wifi.espSendZ
3713+ ADFB 0E 04            ld c, 4
3714+ ADFD 06 64            ld b, 100
3715+ ADFF C3 BA AD         jp .baudLoop
3716+ AE02              .skipRecover
3717+ AE02
3718+ AE02                  ; 1) Probar AT+UART_DEF? (algunos firmwares no soportan CUR)
3719+ AE02 3A 82 AF         ld a, (baud_tried_def)
3720+ AE05 A7               and a
3721+ AE06 C2 1E AE         jp nz, .tryPlain
3722+ AE09 3E 01            ld a, 1
3723+ AE0B 32 82 AF         ld (baud_tried_def), a
3724+ AE0E CD 89 A8         call flushUartBuffer
3725+ AE11 21 25 AF         ld hl, cmd_uart_def
3726+ AE14 CD C9 8E         call Wifi.espSendZ
3727+ AE17 0E 04            ld c, 4
3728+ AE19 06 64            ld b, 100
3729+ AE1B C3 BA AD         jp .baudLoop
3730+ AE1E
3731+ AE1E              .tryPlain
3732+ AE1E                  ; 2) Probar AT+UART? (firmwares antiguos)
3733+ AE1E 3A 83 AF         ld a, (baud_tried_plain)
3734+ AE21 A7               and a
3735+ AE22 C2 86 AE         jp nz, .baudDone
3736+ AE25 3E 01            ld a, 1
3737+ AE27 32 83 AF         ld (baud_tried_plain), a
3738+ AE2A CD 89 A8         call flushUartBuffer
3739+ AE2D 21 34 AF         ld hl, cmd_uart_plain
3740+ AE30 CD C9 8E         call Wifi.espSendZ
3741+ AE33 0E 04            ld c, 4
3742+ AE35 06 64            ld b, 100
3743+ AE37 C3 BA AD         jp .baudLoop
3744+ AE3A              .noErrLine
3745+ AE3A
3746+ AE3A                  ; Filtrar ruido y ECO
3747+ AE3A FE 41            cp 'A'
3747+ AE3C CA BA AD       jp z, .baudLoop    ; Ignorar eco AT...
3748+ AE3F FE 30            cp '0'
3748+ AE41 CA BA AD       jp z, .baudLoop
3749+ AE44 FE 43            cp 'C'
3749+ AE46 CA BA AD       jp z, .baudLoop
3750+ AE49
3751+ AE49                  ; Si empieza con +, verificar que no sea +IPD
3752+ AE49 FE 2B            cp '+'
3753+ AE4B C2 BA AD         jp nz, .baudLoop            ; No empieza con +, ignorar
3754+ AE4E 3A 49 A8         ld a, (diag_buffer + 1)
3755+ AE51 FE 49            cp 'I'                      ; +IPD -> ignorar
3756+ AE53 CA BA AD         jp z, .baudLoop
3757+ AE56 FE 55            cp 'U'                      ; Check +UART
3758+ AE58 C2 BA AD         jp nz, .baudLoop
3759+ AE5B
3760+ AE5B                  ; --- FORMATEO BAUDRATE ---
3761+ AE5B                  ; Cadena: +UART_CUR:9600,8,1,0,0
3762+ AE5B                  ; Longitud header (+UART_CUR:) es 10 chars, no 11
3763+ AE5B
3764+ AE5B 3A 88 A8         ld a, (diag_line)
3764+ AE5E 67             ld h, a
3764+ AE5F 2E 01          ld l, 1
3764+ AE61 22 4C 82       ld (Display.coords), hl
3765+ AE64
3766+ AE64 21 3F AF         ld hl, lbl_baud
3767+ AE67 CD 30 80         call Display.putStr
3768+ AE6A
3769+ AE6A 21 48 A8         ld hl, diag_buffer
3770+ AE6D CD C0 AE         call .skipToColon           ; Saltar hasta ':' (soporta +UART y +UART_CUR)
3771+ AE70 CD CC AE         call .printUntilComma       ; Imprimir solo el número
3772+ AE73
3773+ AE73 3E 01            ld a, 1
3774+ AE75 32 84 AF         ld (baud_have_value), a
3775+ AE78
3776+ AE78 3A 88 A8         ld a, (diag_line)
3776+ AE7B 3C             inc a
3776+ AE7C 32 88 A8       ld (diag_line), a
3777+ AE7F C3 BA AD         jp .baudLoop                ; Seguir sin decrementar
3778+ AE82
3779+ AE82              .baudTimeout
3780+ AE82 0D               dec c
3781+ AE83 C2 BA AD         jp nz, .baudLoop
3782+ AE86
3783+ AE86              .baudDone
3784+ AE86                  ; Si no se pudo obtener ninguna linea +UART, avisar
3785+ AE86 3A 84 AF         ld a, (baud_have_value)
3786+ AE89 A7               and a
3787+ AE8A C2 A9 AE         jp nz, .baudDoneHasValue
3788+ AE8D                  gotoXY 1, 5
3788+ AE8D 21 01 05    >    ld hl, 1 or (5<<8)
3788+ AE90 22 4C 82    >    ld (Display.coords), hl
3789+ AE93 3A 85 AF         ld a, (baud_saw_error)
3790+ AE96 A7               and a
3791+ AE97 CA A3 AE         jp z, .noErrMsg
3792+ AE9A 21 67 AF         ld hl, msg_uart_error
3793+ AE9D CD 30 80         call Display.putStr
3794+ AEA0 C3 A9 AE         jp .afterErrMsg
3795+ AEA3              .noErrMsg
3796+ AEA3 21 4B AF         ld hl, msg_uart_none
3797+ AEA6 CD 30 80         call Display.putStr
3798+ AEA9              .afterErrMsg
3799+ AEA9              .baudDoneHasValue
3800+ AEA9                  gotoXY 1, 12
3800+ AEA9 21 01 0C    >    ld hl, 1 or (12<<8)
3800+ AEAC 22 4C 82    >    ld (Display.coords), hl
3801+ AEAF 21 43 B2         ld hl, msg_press_key
3802+ AEB2 CD 30 80         call Display.putStr
3803+ AEB5              .waitBaudKey
3804+ AEB5 76               halt
3805+ AEB6 CD 2E B5         call Keyboard.inKey
3806+ AEB9 A7               and a
3807+ AEBA CA B5 AE         jp z, .waitBaudKey
3808+ AEBD C3 10 A7         jp showDiagnostics
3809+ AEC0
3810+ AEC0              .skipToColon
3811+ AEC0 7E               ld a, (hl)
3812+ AEC1 A7               and a
3812+ AEC2 C8             ret z
3813+ AEC3 FE 3A            cp ':'
3813+ AEC5 28 03          jr z, .gotColon
3814+ AEC7 23               inc hl
3815+ AEC8 18 F6            jr .skipToColon
3816+ AECA              .gotColon
3817+ AECA 23               inc hl
3818+ AECB C9               ret
3819+ AECC
3820+ AECC
3821+ AECC              .printUntilComma
3822+ AECC 7E               ld a, (hl)
3823+ AECD A7               and a
3823+ AECE C8             ret z
3824+ AECF FE 2C            cp ','
3824+ AED1 C8             ret z
3825+ AED2 FE 0D            cp 13
3825+ AED4 C8             ret z
3826+ AED5 E5               push hl
3827+ AED6 CD 46 80         call Display.putC
3828+ AED9 E1               pop hl
3829+ AEDA 23               inc hl
3830+ AEDB 18 EF            jr .printUntilComma
3831+ AEDD
3832+ AEDD 55 41 52 54  msg_baud_title db "UART configuration:", 0
3832+ AEE1 20 63 6F 6E
3832+ AEE5 66 69 67 75
3832+ AEE9 72 61 74 69
3832+ AEED 6F 6E 3A 00
3833+ AEF1 4E 6F 20 41  msg_no_at      db "No AT response (still in data mode?)", 0
3833+ AEF5 54 20 72 65
3833+ AEF9 73 70 6F 6E
3833+ AEFD 73 65 20 28
3833+ AF01 73 74 69 6C
3833+ AF05 6C 20 69 6E
3833+ AF09 20 64 61 74
3833+ AF0D 61 20 6D 6F
3833+ AF11 64 65 3F 29
3833+ AF15 00
3834+ AF16 41 54 2B 55  cmd_uart_cur   db "AT+UART_CUR?", 13, 10, 0
3834+ AF1A 41 52 54 5F
3834+ AF1E 43 55 52 3F
3834+ AF22 0D 0A 00
3835+ AF25 41 54 2B 55  cmd_uart_def   db "AT+UART_DEF?", 13, 10, 0
3835+ AF29 41 52 54 5F
3835+ AF2D 44 45 46 3F
3835+ AF31 0D 0A 00
3836+ AF34 41 54 2B 55  cmd_uart_plain db "AT+UART?", 13, 10, 0
3836+ AF38 41 52 54 3F
3836+ AF3C 0D 0A 00
3837+ AF3F 42 61 75 64  lbl_baud       db "Baud Rate: ", 0
3837+ AF43 20 52 61 74
3837+ AF47 65 3A 20 00
3838+ AF4B 4E 6F 20 55  msg_uart_none db "No UART info (no response).", 0
3838+ AF4F 41 52 54 20
3838+ AF53 69 6E 66 6F
3838+ AF57 20 28 6E 6F
3838+ AF5B 20 72 65 73
3838+ AF5F 70 6F 6E 73
3838+ AF63 65 29 2E 00
3839+ AF67 55 41 52 54  msg_uart_error db "UART query returned ERROR.", 0
3839+ AF6B 20 71 75 65
3839+ AF6F 72 79 20 72
3839+ AF73 65 74 75 72
3839+ AF77 6E 65 64 20
3839+ AF7B 45 52 52 4F
3839+ AF7F 52 2E 00
3840+ AF82
3841+ AF82 00           baud_tried_def  db 0
3842+ AF83 00           baud_tried_plain db 0
3843+ AF84 00           baud_have_value db 0
3844+ AF85 00           baud_saw_error  db 0
3845+ AF86 00           baud_recover_tried db 0
3846+ AF87
3847+ AF87 00           conn_retries db 0
3848+ AF88 41 54 2B 43  cmd_disconnect db "AT+CWQAP", 13, 10, 0
3848+ AF8C 57 51 41 50
3848+ AF90 0D 0A 00
3849+ AF93
3850+ AF93              ; ============================================
3851+ AF93              ; checkAsyncWifi - Detecta eventos WiFi asíncronos
3852+ AF93              ; Busca "DISCONNECT" y "GOT IP" en el stream UART
3853+ AF93              ; Retorna: A = código de evento
3854+ AF93              ;   ASYNC_EVENT_NONE (0) = sin evento
3855+ AF93              ;   ASYNC_EVENT_DISCONNECT (1) = desconexión detectada
3856+ AF93              ;   ASYNC_EVENT_GOTIP (2) = conexión detectada
3857+ AF93              ; ============================================
3858+ AF93              ASYNC_EVENT_NONE       = 0
3859+ AF93              ASYNC_EVENT_DISCONNECT = 1
3860+ AF93              ASYNC_EVENT_GOTIP      = 2
3861+ AF93
3862+ AF93              checkAsyncWifi:
3863+ AF93                  ; NO leer UART si hay operación crítica en curso
3864+ AF93 3A 5F 92         ld a, (Wifi.uart_busy)
3865+ AF96 A7               and a
3866+ AF97 28 02            jr z, .canRead
3867+ AF99 AF               xor a                       ; A = ASYNC_EVENT_NONE
3868+ AF9A C9               ret
3869+ AF9B
3870+ AF9B              .canRead
3871+ AF9B                  ; Intentar leer un byte del UART (no bloqueante)
3872+ AF9B CD B8 BE         call UartImpl.uartRead
3873+ AF9E 38 02            jr c, .gotByte
3874+ AFA0 AF               xor a                       ; A = ASYNC_EVENT_NONE
3875+ AFA1 C9               ret
3876+ AFA2
3877+ AFA2              .gotByte
3878+ AFA2                  ; A = byte leído
3879+ AFA2                  ; Ignorar caracteres de control (CR, LF, etc)
3880+ AFA2 FE 20            cp 32
3881+ AFA4 30 02            jr nc, .validChar
3882+ AFA6 AF               xor a                       ; A = ASYNC_EVENT_NONE
3883+ AFA7 C9               ret
3884+ AFA8
3885+ AFA8              .validChar
3886+ AFA8                  ; Añadir al buffer circular
3887+ AFA8 4F               ld c, a                     ; Guardar byte en C
3888+ AFA9 21 4D B0         ld hl, async_buf_idx
3889+ AFAC 5E               ld e, (hl)
3890+ AFAD 16 00            ld d, 0
3891+ AFAF 21 3D B0         ld hl, async_buffer
3892+ AFB2 19               add hl, de
3893+ AFB3 71               ld (hl), c                  ; Guardar byte
3894+ AFB4
3895+ AFB4                  ; Incrementar índice circular
3896+ AFB4 7B               ld a, e
3897+ AFB5 3C               inc a
3898+ AFB6 FE 10            cp ASYNC_BUF_SIZE
3899+ AFB8 38 01            jr c, .storeIdx
3900+ AFBA AF               xor a                       ; Wrap to 0
3901+ AFBB              .storeIdx
3902+ AFBB 32 4D B0         ld (async_buf_idx), a
3903+ AFBE
3904+ AFBE                  ; Incrementar contador de bytes recibidos (hasta ASYNC_BUF_SIZE)
3905+ AFBE 3A 4E B0         ld a, (async_buf_count)
3906+ AFC1 FE 10            cp ASYNC_BUF_SIZE
3907+ AFC3 30 04            jr nc, .checkPatterns       ; Ya lleno, no incrementar más
3908+ AFC5 3C               inc a
3909+ AFC6 32 4E B0         ld (async_buf_count), a
3910+ AFC9
3911+ AFC9              .checkPatterns
3912+ AFC9                  ; Verificar si tenemos suficientes caracteres
3913+ AFC9 3A 4E B0         ld a, (async_buf_count)
3914+ AFCC FE 06            cp 6                        ; Mínimo para "GOT IP" o "DISCON"
3915+ AFCE 30 02            jr nc, .enoughChars
3916+ AFD0 AF               xor a                       ; A = ASYNC_EVENT_NONE
3917+ AFD1 C9               ret
3918+ AFD2
3919+ AFD2              .enoughChars
3920+ AFD2                  ; Buscar patrones
3921+ AFD2 CD DA AF         call .checkDisconnect
3922+ AFD5 C0               ret nz                      ; Si NZ, A ya tiene ASYNC_EVENT_DISCONNECT
3923+ AFD6 CD F7 AF         call .checkGotIP
3924+ AFD9 C9               ret                         ; A tiene el resultado (0 o 2)
3925+ AFDA
3926+ AFDA              .checkDisconnect:
3927+ AFDA                  ; Buscar "DISCON" (6 chars)
3928+ AFDA                  ; Calcular posición de inicio considerando wrap-around
3929+ AFDA 3A 4D B0         ld a, (async_buf_idx)
3930+ AFDD D6 06            sub 6
3931+ AFDF 30 02            jr nc, .discNoWrap
3932+ AFE1 C6 10            add a, ASYNC_BUF_SIZE       ; Wrap: idx + (SIZE - 6)
3933+ AFE3              .discNoWrap
3934+ AFE3                  ; A = posición de inicio del patrón
3935+ AFE3 11 31 B0         ld de, .pat_discon
3936+ AFE6 CD 14 B0         call .comparePattern
3937+ AFE9 20 0A            jr nz, .notFoundDisc
3938+ AFEB
3939+ AFEB                  ; ¡Encontrado DISCONNECT!
3940+ AFEB AF               xor a
3941+ AFEC 32 4D B0         ld (async_buf_idx), a       ; Resetear buffer
3942+ AFEF 32 4E B0         ld (async_buf_count), a
3943+ AFF2 3E 01            ld a, ASYNC_EVENT_DISCONNECT
3944+ AFF4 C9               ret                         ; NZ porque A != 0
3945+ AFF5
3946+ AFF5              .notFoundDisc
3947+ AFF5 AF               xor a                       ; Z, A = 0
3948+ AFF6 C9               ret
3949+ AFF7
3950+ AFF7              .checkGotIP:
3951+ AFF7                  ; Buscar "GOT IP" (6 chars)
3952+ AFF7 3A 4D B0         ld a, (async_buf_idx)
3953+ AFFA D6 06            sub 6
3954+ AFFC 30 02            jr nc, .gotNoWrap
3955+ AFFE C6 10            add a, ASYNC_BUF_SIZE
3956+ B000              .gotNoWrap
3957+ B000 11 37 B0         ld de, .pat_gotip
3958+ B003 CD 14 B0         call .comparePattern
3959+ B006 20 0A            jr nz, .notFoundGot
3960+ B008
3961+ B008                  ; ¡Encontrado GOT IP!
3962+ B008 AF               xor a
3963+ B009 32 4D B0         ld (async_buf_idx), a
3964+ B00C 32 4E B0         ld (async_buf_count), a
3965+ B00F 3E 02            ld a, ASYNC_EVENT_GOTIP
3966+ B011 C9               ret
3967+ B012
3968+ B012              .notFoundGot
3969+ B012 AF               xor a                       ; A = ASYNC_EVENT_NONE
3970+ B013 C9               ret
3971+ B014
3972+ B014              ; Compara 6 bytes del buffer circular con patrón
3973+ B014              ; A = posición inicial en buffer, DE = patrón
3974+ B014              ; Retorna Z si coincide, NZ si no
3975+ B014              .comparePattern
3976+ B014 06 06            ld b, 6
3977+ B016              .cmpLoop
3978+ B016 C5               push bc
3979+ B017 D5               push de
3980+ B018
3981+ B018                  ; Calcular dirección en buffer (con wrap)
3982+ B018 4F               ld c, a                     ; Guardar índice
3983+ B019 21 3D B0         ld hl, async_buffer
3984+ B01C 16 00            ld d, 0
3985+ B01E 5F               ld e, a
3986+ B01F 19               add hl, de
3987+ B020
3988+ B020                  ; Comparar byte
3989+ B020 D1               pop de
3990+ B021 1A               ld a, (de)
3991+ B022 BE               cp (hl)
3992+ B023 C1               pop bc
3993+ B024 C0               ret nz                      ; No coincide
3994+ B025
3995+ B025                  ; Siguiente byte
3996+ B025 13               inc de
3997+ B026 79               ld a, c
3998+ B027 3C               inc a
3999+ B028 FE 10            cp ASYNC_BUF_SIZE
4000+ B02A 38 01            jr c, .noWrap
4001+ B02C AF               xor a                       ; Wrap
4002+ B02D              .noWrap
4003+ B02D 10 E7            djnz .cmpLoop
4004+ B02F
4005+ B02F AF               xor a                       ; Z = coincide
4006+ B030 C9               ret
4007+ B031
4008+ B031 44 49 53 43  .pat_discon db "DISCON"
4008+ B035 4F 4E
4009+ B037 47 4F 54 20  .pat_gotip  db "GOT IP"
4009+ B03B 49 50
4010+ B03D
4011+ B03D              ASYNC_BUF_SIZE = 16
4012+ B03D 00 00 00...  async_buffer    ds ASYNC_BUF_SIZE
4013+ B04D 00           async_buf_idx   db 0
4014+ B04E 00           async_buf_count db 0                ; Contador de bytes en buffer (para wrap correcto)
4015+ B04F
4016+ B04F              ; --------------------------------------------
4017+ B04F              ; waitAnyKey
4018+ B04F              ;   Bloquea hasta que se pulse cualquier tecla.
4019+ B04F              ;   Uso UI (no debe usarse durante parsers de alta velocidad).
4020+ B04F              ; --------------------------------------------
4021+ B04F              waitAnyKey:
4022+ B04F              waitAnyKey_loop:
4023+ B04F 76               halt
4024+ B050 CD 2E B5         call Keyboard.inKey
4025+ B053 A7               and a
4026+ B054 CA 4F B0         jp z, waitAnyKey_loop
4027+ B057 C9               ret
4028+ B058
4029+ B058              ; ============================================
4030+ B058              ; Muestra info de redes alineada a la DERECHA en línea 17
4031+ B058              ; Texto termina en columna 41 (límite seguro de pantalla).
4032+ B058              ; ============================================
4033+ B058              showPageInfo:
4034+ B058                  ; --- 1. Calcular datos de paginación ---
4035+ B058 3A 59 92         ld a, (Wifi.networks_count)
4036+ B05B A7               and a
4037+ B05C 20 12            jr nz, .haveNetworks
4038+ B05E
4039+ B05E                  ; 0 redes: limpiar línea 17 completa (evita contador obsoleto)
4040+ B05E                  gotoXY 0, 17
4040+ B05E 21 00 11    >    ld hl, 0 or (17<<8)
4040+ B061 22 4C 82    >    ld (Display.coords), hl
4041+ B064 06 2A            ld b, 42
4042+ B066              .clrLine17
4043+ B066 3E 20            ld a, ' '
4044+ B068 C5               push bc
4045+ B069 CD 46 80         call Display.putC
4046+ B06C C1               pop bc
4047+ B06D 10 F7            djnz .clrLine17
4048+ B06F C9               ret
4049+ B070
4050+ B070              .haveNetworks
4051+ B070
4052+ B070                  ; Calcular Total pages = ceil(count / PER_PAGE)
4053+ B070                  ; = (count - 1) / PER_PAGE + 1 (usando resta repetida)
4054+ B070 3D               dec a                   ; A = count - 1
4055+ B071 06 00            ld b, 0
4056+ B073              .divTotal
4057+ B073 04               inc b
4058+ B074 D6 0A            sub PER_PAGE
4059+ B076 30 FB            jr nc, .divTotal
4060+ B078 78               ld a, b
4061+ B079 32 3D B1         ld (page_total), a
4062+ B07C
4063+ B07C                  ; Calcular Current page = offset / PER_PAGE + 1
4064+ B07C 3A 43 B3         ld a, (offset)
4065+ B07F 06 00            ld b, 0
4066+ B081              .divCurrent
4067+ B081 04               inc b
4068+ B082 D6 0A            sub PER_PAGE
4069+ B084 30 FB            jr nc, .divCurrent
4070+ B086 78               ld a, b
4071+ B087 32 3E B1         ld (page_current), a
4072+ B08A
4073+ B08A                  ; --- 2. Calcular longitud del texto para alinear ---
4074+ B08A                  ; Base: "X networks detected"
4075+ B08A                  ; " networks detected" = 18 chars
4076+ B08A 0E 12            ld c, 18
4077+ B08C
4078+ B08C                  ; Sumar dígitos de networks_count
4079+ B08C 3A 59 92         ld a, (Wifi.networks_count)
4080+ B08F CD 19 B1         call getDigitCount      ; Devuelve 1 o 2 en A
4081+ B092 81               add a, c
4082+ B093 4F               ld c, a                 ; C tiene longitud parcial
4083+ B094
4084+ B094                  ; Si hay paginación, sumar " (A/B pages)"
4085+ B094 3A 3D B1         ld a, (page_total)
4086+ B097 FE 02            cp 2
4087+ B099 38 14            jr c, .calcFinish       ; Solo 1 página, terminamos cálculo
4088+ B09B
4089+ B09B                  ; " (" + digit + "/" + digit + " pages)"
4090+ B09B                  ; 2 chars (" (") + page_curr + 1 char ("/") + page_total + 7 chars (" pages)") = 10 + digits
4091+ B09B 79               ld a, c
4092+ B09C C6 0A            add a, 10
4093+ B09E 4F               ld c, a
4094+ B09F
4095+ B09F 3A 3E B1         ld a, (page_current)
4096+ B0A2 CD 19 B1         call getDigitCount
4097+ B0A5 81               add a, c
4098+ B0A6 4F               ld c, a
4099+ B0A7
4100+ B0A7 3A 3D B1         ld a, (page_total)
4101+ B0AA CD 19 B1         call getDigitCount
4102+ B0AD 81               add a, c
4103+ B0AE 4F               ld c, a                 ; C = Longitud TOTAL del string
4104+ B0AF
4105+ B0AF              .calcFinish
4106+ B0AF                  ; --- 3. Calcular posición X inicial ---
4107+ B0AF                  ; Queremos terminar en columna 41 (límite derecho)
4108+ B0AF                  ; StartX = 42 - C.
4109+ B0AF 3E 2A            ld a, 42
4110+ B0B1 91               sub c
4111+ B0B2 47               ld b, a                 ; B = StartX
4112+ B0B3
4113+ B0B3                  ; --- 4. Limpiar línea 17 desde columna 0 hasta StartX ---
4114+ B0B3 78               ld a, b
4115+ B0B4 A7               and a
4116+ B0B5 28 12            jr z, .printInfo        ; Si StartX es 0, no limpiar
4117+ B0B7
4118+ B0B7 C5               push bc
4119+ B0B8 47               ld b, a                 ; Cantidad
4120+ B0B9                  gotoXY 0, 17
4120+ B0B9 21 00 11    >    ld hl, 0 or (17<<8)
4120+ B0BC 22 4C 82    >    ld (Display.coords), hl
4121+ B0BF              .clrPre
4122+ B0BF 3E 20            ld a, ' '
4123+ B0C1 C5               push bc
4124+ B0C2 CD 46 80         call Display.putC
4125+ B0C5 C1               pop bc
4126+ B0C6 10 F7            djnz .clrPre
4127+ B0C8 C1               pop bc                  ; Recuperar B (StartX)
4128+ B0C9
4129+ B0C9              .printInfo
4130+ B0C9                  ; --- 5. Imprimir texto en su posición ---
4131+ B0C9 68               ld l, b                 ; L = StartX
4132+ B0CA 26 11            ld h, 17
4133+ B0CC 22 4C 82         ld (Display.coords), hl
4134+ B0CF
4135+ B0CF                  ; Imprimir "Num networks detected"
4136+ B0CF 3A 59 92         ld a, (Wifi.networks_count)
4137+ B0D2 CD 20 B1         call printNumber
4138+ B0D5 21 FE B0         ld hl, .msg_net_det
4139+ B0D8 CD 30 80         call Display.putStr
4140+ B0DB
4141+ B0DB                  ; Imprimir paginación si corresponde
4142+ B0DB 3A 3D B1         ld a, (page_total)
4143+ B0DE FE 02            cp 2
4144+ B0E0 D8               ret c
4145+ B0E1
4146+ B0E1 3E 28            ld a, '('
4146+ B0E3 CD 46 80       call Display.putC
4147+ B0E6 3A 3E B1         ld a, (page_current)
4147+ B0E9 CD 20 B1       call printNumber
4148+ B0EC 3E 2F            ld a, '/'
4148+ B0EE CD 46 80       call Display.putC
4149+ B0F1 3A 3D B1         ld a, (page_total)
4149+ B0F4 CD 20 B1       call printNumber
4150+ B0F7 21 11 B1         ld hl, .msg_pages_suff
4151+ B0FA CD 30 80         call Display.putStr
4152+ B0FD C9               ret
4153+ B0FE
4154+ B0FE 20 6E 65 74  .msg_net_det    db " networks detected", 0
4154+ B102 77 6F 72 6B
4154+ B106 73 20 64 65
4154+ B10A 74 65 63 74
4154+ B10E 65 64 00
4155+ B111 20 70 61 67  .msg_pages_suff db " pages)", 0
4155+ B115 65 73 29 00
4156+ B119
4157+ B119              ; Devuelve en A cuántos dígitos tiene el número en A (0-99)
4158+ B119              ; 1 si < 10, 2 si >= 10
4159+ B119              getDigitCount:
4160+ B119 FE 0A            cp 10
4161+ B11B 3E 01            ld a, 1
4162+ B11D D8               ret c
4163+ B11E 3C               inc a
4164+ B11F C9               ret
4165+ B120
4166+ B120              ; Imprime A (0-99) en decimal
4167+ B120              printNumber:
4168+ B120 4F               ld c, a
4169+ B121 06 00            ld b, 0
4170+ B123 FE 0A            cp 10
4171+ B125 38 11            jr c, .oneDigit
4172+ B127 16 00            ld d, 0
4173+ B129              .div10
4174+ B129 D6 0A            sub 10
4175+ B12B 14               inc d
4176+ B12C FE 0A            cp 10
4177+ B12E 30 F9            jr nc, .div10
4178+ B130 F5               push af
4179+ B131 7A               ld a, d
4180+ B132 C6 30            add a, '0'
4181+ B134 CD 46 80         call Display.putC
4182+ B137 F1               pop af
4183+ B138              .oneDigit
4184+ B138 C6 30            add a, '0'
4185+ B13A C3 46 80         jp Display.putC
4186+ B13D
4187+ B13D 00           page_total      db 0
4188+ B13E 00           page_current    db 0
4189+ B13F
4190+ B13F              ; ============================================
4191+ B13F              ; Mensajes y datos
4192+ B13F              ; ============================================
4193+ B13F 43 6F 6E 6E  msg_done        db "Connected!", 13, 13, "Now you can use network apps!",13, 0
4193+ B143 65 63 74 65
4193+ B147 64 21 0D 0D
4193+ B14B 4E 6F 77 20
4193+ B14F 79 6F 75 20
4193+ B153 63 61 6E 20
4193+ B157 75 73 65 20
4193+ B15B 6E 65 74 77
4193+ B15F 6F 72 6B 20
4193+ B163 61 70 70 73
4193+ B167 21 0D 00
4194+ B16A 43 6F 6E 6E  msg_fail_generic  db "Connection failed!", 13, 13, "Unknown error.", 0
4194+ B16E 65 63 74 69
4194+ B172 6F 6E 20 66
4194+ B176 61 69 6C 65
4194+ B17A 64 21 0D 0D
4194+ B17E 55 6E 6B 6E
4194+ B182 6F 77 6E 20
4194+ B186 65 72 72 6F
4194+ B18A 72 2E 00
4195+ B18D 43 6F 6E 6E  msg_fail_timeout  db "Connection timeout!", 13, 13, "Router not responding.", 0
4195+ B191 65 63 74 69
4195+ B195 6F 6E 20 74
4195+ B199 69 6D 65 6F
4195+ B19D 75 74 21 0D
4195+ B1A1 0D 52 6F 75
4195+ B1A5 74 65 72 20
4195+ B1A9 6E 6F 74 20
4195+ B1AD 72 65 73 70
4195+ B1B1 6F 6E 64 69
4195+ B1B5 6E 67 2E 00
4196+ B1B9 57 72 6F 6E  msg_fail_password db "Wrong password!", 13, 13, "Check password and try again.", 0
4196+ B1BD 67 20 70 61
4196+ B1C1 73 73 77 6F
4196+ B1C5 72 64 21 0D
4196+ B1C9 0D 43 68 65
4196+ B1CD 63 6B 20 70
4196+ B1D1 61 73 73 77
4196+ B1D5 6F 72 64 20
4196+ B1D9 61 6E 64 20
4196+ B1DD 74 72 79 20
4196+ B1E1 61 67 61 69
4196+ B1E5 6E 2E 00
4197+ B1E8 4E 65 74 77  msg_fail_notfound db "Network not found!", 13, 13, "AP may be out of range.", 0
4197+ B1EC 6F 72 6B 20
4197+ B1F0 6E 6F 74 20
4197+ B1F4 66 6F 75 6E
4197+ B1F8 64 21 0D 0D
4197+ B1FC 41 50 20 6D
4197+ B200 61 79 20 62
4197+ B204 65 20 6F 75
4197+ B208 74 20 6F 66
4197+ B20C 20 72 61 6E
4197+ B210 67 65 2E 00
4198+ B214 43 6F 6E 6E  msg_fail_connfail db "Connection failed!", 13, 13, "Try again or check router.", 0
4198+ B218 65 63 74 69
4198+ B21C 6F 6E 20 66
4198+ B220 61 69 6C 65
4198+ B224 64 21 0D 0D
4198+ B228 54 72 79 20
4198+ B22C 61 67 61 69
4198+ B230 6E 20 6F 72
4198+ B234 20 63 68 65
4198+ B238 63 6B 20 72
4198+ B23C 6F 75 74 65
4198+ B240 72 2E 00
4199+ B243 50 72 65 73  msg_press_key   db "Press any key to continue...", 0
4199+ B247 73 20 61 6E
4199+ B24B 79 20 6B 65
4199+ B24F 79 20 74 6F
4199+ B253 20 63 6F 6E
4199+ B257 74 69 6E 75
4199+ B25B 65 2E 2E 2E
4199+ B25F 00
4200+ B260 43 6F 6E 6E  msg_conn_attempt db "Connecting (x/3)...", 0
4200+ B264 65 63 74 69
4200+ B268 6E 67 20 28
4200+ B26C 78 2F 33 29
4200+ B270 2E 2E 2E 00
4201+ B274 20 52 65 74  msg_retry_suffix db " Retry", 0
4201+ B278 72 79 00
4202+ B27B 50 72 65 73  msg_break_cancel db "Press BREAK to cancel", 0
4202+ B27F 73 20 42 52
4202+ B283 45 41 4B 20
4202+ B287 74 6F 20 63
4202+ B28B 61 6E 63 65
4202+ B28F 6C 00
4203+ B291 50 72 65 73  msg_edit_cancel  db "Press EDIT to cancel", 0
4203+ B295 73 20 45 44
4203+ B299 49 54 20 74
4203+ B29D 6F 20 63 61
4203+ B2A1 6E 63 65 6C
4203+ B2A5 00
4204+ B2A6 4F 70 65 6E  msg_open_net    db "Open network (no password needed)", 0
4204+ B2AA 20 6E 65 74
4204+ B2AE 77 6F 72 6B
4204+ B2B2 20 28 6E 6F
4204+ B2B6 20 70 61 73
4204+ B2BA 73 77 6F 72
4204+ B2BE 64 20 6E 65
4204+ B2C2 65 64 65 64
4204+ B2C6 29 00
4205+ B2C8 41 54 2B 43  at_start        db 'AT+CWJAP="',0
4205+ B2CC 57 4A 41 50
4205+ B2D0 3D 22 00
4206+ B2D3 41 54 2B 43  at_start_old    db 'AT+CWJAP_DEF="',0
4206+ B2D7 57 4A 41 50
4206+ B2DB 5F 44 45 46
4206+ B2DF 3D 22 00
4207+ B2E2 22 2C 22 00  at_middle       db '","', 0
4208+ B2E6 53 65 6C 65  msg_ssid        db "Selected SSID:", 0
4208+ B2EA 63 74 65 64
4208+ B2EE 20 53 53 49
4208+ B2F2 44 3A 00
4209+ B2F5 50 61 73 73  msg_pass        db "Password (EDIT=cancel, UP=show):", 0
4209+ B2F9 77 6F 72 64
4209+ B2FD 20 28 45 44
4209+ B301 49 54 3D 63
4209+ B305 61 6E 63 65
4209+ B309 6C 2C 20 55
4209+ B30D 50 3D 73 68
4209+ B311 6F 77 29 3A
4209+ B315 00
4210+ B316
4211+ B316 00 00 00...  pass_buffer     ds MAX_PASS_LEN + 2
4212+ B340 00           pass_len        db 0
4213+ B341 00           pass_cursor     db 0                ; Posición del cursor en el password
4214+ B342 00           cursor_position db 0
4215+ B343 00           offset          db 0
4216+ B344 00           is_open_network db 0
4217+ B345 00           show_password   db 0                ; Flag para mostrar contraseña
4218+ B346 00 00        selected_ssid_ptr dw 0              ; Puntero al SSID seleccionado
4219+ B348 00           ui_async_div    db 0                ; Divisor para checkAsyncWifi
4220+ B349 00 00        autoscan_counter dw 0              ; Contador para auto-rescan (15000 = 5 min)
4221+ B34B 00 00        health_counter  dw 0              ; Contador para health-check periódico (solo invalidar)
4222+ B34D 00           force_rescan   db 0              ; 1 => rescan pending after disconnect
4223+ B34E
4224+ B34E              msg_head
4225+ B34E C4 C4 C4...      ds 13, 196
4226+ B35B B4 20 4E 65      db 180, " NetManZX "
4226+ B35F 74 4D 61 6E
4226+ B363 5A 58 20
4227+ B366 31 2E 32 2E      db "1.2.1"
4227+ B36A 31
4228+ B36B 20 C3            db " ", 195
4229+ B36D C4 C4 C4...      ds 13, 196
4230+ B37A 00               db 0
4231+ B37B
4232+ B37B              ; Barra de estado inferior
4233+ B37B              msg_log_left
4234+ B37B 55 41 52 54      db "UART log"
4234+ B37F 20 6C 6F 67
4235+ B383 C4 C4 C4...      ds 15, 196
4236+ B392 00               db 0
4237+ B393
4238+ B393              msg_wifi_label
4239+ B393 57 69 46 69      db "WiFi:", 0
4239+ B397 3A 00
4240+ B399
4241+ B399                  endmodule
# file closed: modules/ui.asm
  28  B399                  include "modules/uart-common.asm"
# file opened: modules/uart-common.asm
   1+ B399                  module Uart
   2+ B399
   3+ B399              ; Timeout por defecto - Next necesita más porque su CPU es más rápida
   4+ B399                  IFDEF NEXT
   5+ B399 ~            DEFAULT_TIMEOUT = #FFFF          ; Next: timeout máximo 16-bit
   6+ B399                  ELSE
   7+ B399              DEFAULT_TIMEOUT = #8000          ; UNO/divMMC: (~1.6s a 3.5MHz)
   8+ B399                  ENDIF
   9+ B399
  10+ B399              ; Timeout largo: se implementa como varios bloques para tolerar pausas
  11+ B399              ; largas (JOIN/DHCP/SCAN) sin declarar timeout prematuro.
  12+ B399              ; Next tiene CPU más rápida, necesita más repeticiones
  13+ B399              LONG_TIMEOUT_BLOCK = #FFFF
  14+ B399                  IFDEF NEXT
  15+ B399 ~            LONG_TIMEOUT_REPS  = 80          ; Next: CPU más rápida, necesita más tiempo
  16+ B399                  ELSE
  17+ B399              LONG_TIMEOUT_REPS  = 8           ; UNO/divMMC: valor original
  18+ B399                  ENDIF
  19+ B399
  20+ B399              ; Timeout medio: para lectura de datos en curso (ej: scan)
  21+ B399                  IFDEF NEXT
  22+ B399 ~            MEDIUM_TIMEOUT = #FFFF           ; Next: timeout máximo 16-bit
  23+ B399                  ELSE
  24+ B399              MEDIUM_TIMEOUT = #8000           ; UNO/divMMC: igual que default
  25+ B399                  ENDIF
  26+ B399
  27+ B399              init:
  28+ B399                  ; Mensaje movido a main.asm para control de flujo
  29+ B399 CD 88 B6         call UartImpl.init
  30+ B39C                  ; Inicializar buffer de log (modo linea)
  31+ B39C 21 80 B4         ld hl, log_buf
  32+ B39F 22 7E B4         ld (log_ptr), hl
  33+ B3A2 AF               xor a
  34+ B3A3 32 7D B4         ld (log_overflow), a
  35+ B3A6 C9               ret
  36+ B3A7
  37+ B3A7              write:
  38+ B3A7 F5               push af
  39+ B3A8 CD 60 BE         call UartImpl.write
  40+ B3AB F1               pop af
  41+ B3AC F5               push af                 ; Guardar byte para log
  42+ B3AD 3A 7C B4         ld a, (log_enabled)
  43+ B3B0 A7               and a
  44+ B3B1 28 05            jr z, .skipLog
  45+ B3B3 F1               pop af
  46+ B3B4 F5               push af
  47+ B3B5 CD 2C B4         call log_char
  48+ B3B8              .skipLog
  49+ B3B8 F1               pop af
  50+ B3B9 C9               ret
  51+ B3BA
  52+ B3BA
  53+ B3BA              writeStringZ:
  54+ B3BA              .loop
  55+ B3BA 7E               ld a,(hl)
  55+ B3BB A7             and a
  55+ B3BC C8             ret z
  56+ B3BD E5               push hl
  57+ B3BE CD 60 BE         call UartImpl.write
  58+ B3C1 E1               pop hl
  59+ B3C2 23               inc hl
  60+ B3C3 18 F5            jr .loop
  61+ B3C5
  62+ B3C5              ; Lectura bloqueante (compatibilidad)
  63+ B3C5              read:
  64+ B3C5 CD AC BE         call UartImpl.read
  65+ B3C8 F5               push af
  66+ B3C9 3A 7C B4         ld a, (log_enabled)
  67+ B3CC A7               and a
  68+ B3CD 28 05            jr z, .skipLogRead
  69+ B3CF F1               pop af
  70+ B3D0 F5               push af
  71+ B3D1 CD 2C B4         call log_char
  72+ B3D4              .skipLogRead
  73+ B3D4 F1               pop af
  74+ B3D5 C9               ret
  75+ B3D6
  76+ B3D6              ; Lectura con timeout normal
  77+ B3D6              ; Salida: A = byte leído, CF=1 si éxito
  78+ B3D6              ;         CF=0 si timeout
  79+ B3D6              readTimeout:
  80+ B3D6 C5 D5 E5         push bc, de, hl
  81+ B3D9 11 00 80         ld de, DEFAULT_TIMEOUT
  82+ B3DC CD 0A B4         call poll_block
  83+ B3DF 38 39            jr c, got_byte
  84+ B3E1                  ; Timeout
  85+ B3E1 E1 D1 C1         pop hl, de, bc
  86+ B3E4 B7               or a
  87+ B3E5 C9               ret
  88+ B3E6
  89+ B3E6              ; Lectura con timeout medio (para datos en curso, ej: scan)
  90+ B3E6              ; Salida: A = byte leído, CF=1 si éxito
  91+ B3E6              ;         CF=0 si timeout
  92+ B3E6              readTimeoutMedium:
  93+ B3E6 C5 D5 E5         push bc, de, hl
  94+ B3E9 11 00 80         ld de, MEDIUM_TIMEOUT
  95+ B3EC CD 0A B4         call poll_block
  96+ B3EF 38 29            jr c, got_byte
  97+ B3F1                  ; Timeout
  98+ B3F1 E1 D1 C1         pop hl, de, bc
  99+ B3F4 B7               or a
 100+ B3F5 C9               ret
 101+ B3F6
 102+ B3F6              ; Lectura con timeout largo (para conexión WiFi)
 103+ B3F6              ; Salida: A = byte leído, CF=1 si éxito
 104+ B3F6              ;         CF=0 si timeout
 105+ B3F6              readTimeoutLong:
 106+ B3F6 C5 D5 E5         push bc, de, hl
 107+ B3F9 06 08            ld b, LONG_TIMEOUT_REPS
 108+ B3FB              .outer
 109+ B3FB 11 FF FF         ld de, LONG_TIMEOUT_BLOCK
 110+ B3FE CD 0A B4         call poll_block
 111+ B401 38 17            jr c, got_byte
 112+ B403 10 F6            djnz .outer
 113+ B405                  ; Timeout total
 114+ B405 E1 D1 C1         pop hl, de, bc
 115+ B408 B7               or a
 116+ B409 C9               ret
 117+ B40A
 118+ B40A              ; ------------------------------------------------------------
 119+ B40A              ; poll_block
 120+ B40A              ;   Entrada: DE = contador
 121+ B40A              ;   Salida:  CF=1 si hay byte (A=byte), CF=0 si timeout
 122+ B40A              ; ------------------------------------------------------------
 123+ B40A              poll_block:
 124+ B40A              .loop
 125+ B40A CD B8 BE         call UartImpl.uartRead
 126+ B40D D8               ret c
 127+ B40E
 128+ B40E                  ; Pequeño delay para no saturar
 129+ B40E 3E 04            ld a, 4
 130+ B410              .delay
 131+ B410 3D               dec a
 132+ B411 20 FD            jr nz, .delay
 133+ B413
 134+ B413 1B               dec de
 135+ B414 7A               ld a, d
 136+ B415 B3               or e
 137+ B416 20 F2            jr nz, .loop
 138+ B418 B7               or a
 139+ B419 C9               ret
 140+ B41A
 141+ B41A              got_byte
 142+ B41A F5               push af                 ; Guardar byte leído PRIMERO
 143+ B41B 3A 7C B4         ld a, (log_enabled)
 144+ B41E A7               and a
 145+ B41F 28 05            jr z, .skipLog
 146+ B421 F1               pop af                  ; Recuperar para mostrar
 147+ B422 F5               push af                 ; Volver a guardar
 148+ B423 CD 2C B4         call log_char
 149+ B426              .skipLog
 150+ B426 F1               pop af                  ; Recuperar byte leído
 151+ B427 E1 D1 C1         pop hl, de, bc
 152+ B42A 37               scf                 ; CF = 1, éxito
 153+ B42B C9               ret
 154+ B42C
 155+ B42C              ; ------------------------------------------------------------
 156+ B42C              ; Log modo linea
 157+ B42C              ;   Acumula bytes en log_buf y vuelca en Display.putStrLog al ver LF.
 158+ B42C              ;   Mantiene CR/LF (si CR llega antes de LF se almacena igual).
 159+ B42C              ; ------------------------------------------------------------
 160+ B42C              LOG_BUF_SIZE = 160
 161+ B42C
 162+ B42C              log_char:
 163+ B42C C5 E5 D5         push bc, hl, de
 164+ B42F 4F               ld c, a
 165+ B430
 166+ B430 2A 7E B4         ld hl, (log_ptr)
 167+ B433 11 1E B5         ld de, log_buf + (LOG_BUF_SIZE - 2)
 168+ B436 B7               or a
 169+ B437 ED 52            sbc hl, de
 170+ B439 38 07            jr c, .have_space
 171+ B43B
 172+ B43B                  ; Sin espacio: marcar overflow y forzar flush cuando llegue LF
 173+ B43B 3E 01            ld a, 1
 174+ B43D 32 7D B4         ld (log_overflow), a
 175+ B440 18 09            jr .maybe_flush
 176+ B442
 177+ B442              .have_space
 178+ B442 79               ld a, c
 179+ B443 2A 7E B4         ld hl, (log_ptr)
 180+ B446 77               ld (hl), a
 181+ B447 23               inc hl
 182+ B448 22 7E B4         ld (log_ptr), hl
 183+ B44B
 184+ B44B              .maybe_flush
 185+ B44B 79               ld a, c
 186+ B44C FE 0A            cp 10                    ; LF
 187+ B44E 20 03            jr nz, .done
 188+ B450 CD 57 B4         call log_flush
 189+ B453              .done
 190+ B453 D1 E1 C1         pop de, hl, bc
 191+ B456 C9               ret
 192+ B457
 193+ B457              log_flush:
 194+ B457 F5 E5            push af, hl
 195+ B459 2A 7E B4         ld hl, (log_ptr)
 196+ B45C AF               xor a
 197+ B45D 77               ld (hl), a               ; Zero-terminate
 198+ B45E 21 80 B4         ld hl, log_buf
 199+ B461 CD 3B 80         call Display.putStrLog
 200+ B464 21 80 B4         ld hl, log_buf
 201+ B467 22 7E B4         ld (log_ptr), hl
 202+ B46A AF               xor a
 203+ B46B 32 7D B4         ld (log_overflow), a
 204+ B46E E1 F1            pop hl, af
 205+ B470 C9               ret
 206+ B471
 207+ B471              ; Reinicia el buffer de log (descarta linea parcial). Util para mutear log en medio
 208+ B471              ; de un comando multipart (p. ej. AT+CWJAP) sin mezclar contenidos.
 209+ B471              logReset:
 210+ B471 21 80 B4         ld hl, log_buf
 211+ B474 22 7E B4         ld (log_ptr), hl
 212+ B477 AF               xor a
 213+ B478 32 7D B4         ld (log_overflow), a
 214+ B47B C9               ret
 215+ B47C
 216+ B47C              ; Variables al final (después del código)
 217+ B47C              ; Por defecto activado: ahora es log por lineas (mucho mas ligero).
 218+ B47C 01           log_enabled  db 1
 219+ B47D 00           log_overflow db 0
 220+ B47E 00 00        log_ptr      dw 0
 221+ B480 00 00 00...  log_buf      ds LOG_BUF_SIZE
 222+ B520
 223+ B520                  endmodule
 224+ B520
# file closed: modules/uart-common.asm
  29  B520                  include "modules/keyboard.asm"
# file opened: modules/keyboard.asm
   1+ B520                  module Keyboard
   2+ B520              BASIC_KEY = #5C08
   3+ B520              KEY_BS = 12
   4+ B520              KEY_UP = 11
   5+ B520              KEY_DN = 10
   6+ B520
   7+ B520              ; Verifica si BREAK está pulsado (CAPS SHIFT + SPACE)
   8+ B520              ; Devuelve: Z=1 si BREAK pulsado, Z=0 si no
   9+ B520              checkBreak:
  10+ B520 3E 7F            ld a, #7F               ; Fila SPACE (B-SPACE)
  11+ B522 DB FE            in a, (#FE)
  12+ B524 CB 47            bit 0, a                ; SPACE es bit 0
  13+ B526 C0               ret nz                  ; No pulsado, Z=0
  14+ B527 3E FE            ld a, #FE               ; Fila CAPS SHIFT (SHIFT-V)
  15+ B529 DB FE            in a, (#FE)
  16+ B52B CB 47            bit 0, a                ; CAPS SHIFT es bit 0
  17+ B52D C9               ret                     ; Z=1 si ambos pulsados
  18+ B52E
  19+ B52E              ; Lectura bloqueante - espera hasta que haya tecla
  20+ B52E              inKey:
  21+ B52E CD 35 B5         call inKeyNoWait
  22+ B531 A7               and a
  23+ B532 28 FA            jr z, inKey
  24+ B534 C9               ret
  25+ B535
  26+ B535              ; Lectura no bloqueante - devuelve 0 si no hay tecla
  27+ B535              inKeyNoWait:
  28+ B535 21 08 5C         ld hl, BASIC_KEY
  29+ B538 7E               ld a, (hl)
  30+ B539 A7               and a
  31+ B53A C8               ret z               ; Sin tecla, devolver 0
  32+ B53B 36 00            ld (hl), 0          ; Limpiar inmediatamente
  33+ B53D C9               ret
  34+ B53E
  35+ B53E                  endmodule
# file closed: modules/keyboard.asm
  30  B53E                  include "modules/compat.asm"
# file opened: modules/compat.asm
   1+ B53E                  module Compat
   2+ B53E              ; API methods
   3+ B53E              ESX_GETSETDRV = #89
   4+ B53E              ESX_FOPEN = #9A
   5+ B53E              ESX_FCLOSE = #9B
   6+ B53E              ESX_FSYNC = #9C
   7+ B53E              ESX_FREAD = #9D
   8+ B53E              ESX_FWRITE = #9E
   9+ B53E
  10+ B53E              FMODE_CREATE = #0E
  11+ B53E
  12+ B53E              ; Guarda configuración WiFi en /sys/config/iw.cfg
  13+ B53E              ; Salida: CF=0 éxito, CF=1 error
  14+ B53E              iwConfig:
  15+ B53E 3A 42 B3         ld a, (UI.cursor_position)
  15+ B541 21 43 B3       ld hl, UI.offset
  15+ B544 86             add (hl)
  15+ B545 57             ld d, a
  15+ B546 CD 1B A2       call UI.findRow ;; HL = SSID NAME
  16+ B549
  17+ B549                  ; Limpiar buffers primero
  18+ B549 E5               push hl
  19+ B54A 21 E8 B5         ld hl, ssid
  20+ B54D 11 E9 B5         ld de, ssid + 1
  21+ B550 AF               xor a
  22+ B551 77               ld (hl), a
  23+ B552 01 4F 00         ld bc, 79
  24+ B555 ED B0            ldir
  25+ B557 21 38 B6         ld hl, pass
  26+ B55A 11 39 B6         ld de, pass + 1
  27+ B55D 77               ld (hl), a
  28+ B55E 01 4F 00         ld bc, 79
  29+ B561 ED B0            ldir
  30+ B563 E1               pop hl
  31+ B564
  32+ B564 11 E8 B5         ld de, ssid
  33+ B567              .copySSID
  34+ B567 7E               ld a, (hl)
  34+ B568 A7             and a
  34+ B569 28 05          jr z, .copyPass
  35+ B56B 12               ld (de),a
  36+ B56C 23 13            inc hl, de
  37+ B56E 18 F7            jr .copySSID
  38+ B570
  39+ B570              .copyPass
  40+ B570 21 16 B3         ld hl, UI.pass_buffer
  41+ B573 11 38 B6         ld de, pass
  42+ B576              .loop
  43+ B576 7E               ld a, (hl)
  43+ B577 A7             and a
  43+ B578 28 05          jr z, .store
  44+ B57A 12               ld (de),a
  45+ B57B 23 13            inc hl, de
  46+ B57D 18 F7            jr .loop
  47+ B57F
  48+ B57F              .store
  49+ B57F                  ; Obtener drive actual
  50+ B57F 3E 00            ld a, 0
  50+ B581 CF             rst #8
  51+ B582 89               db ESX_GETSETDRV
  52+ B583 38 30            jr c, .error
  53+ B585
  54+ B585                  ; Abrir archivo para escritura
  55+ B585 DD 21 BF B5      ld ix, .filename
  56+ B589 21 BF B5         ld hl, .filename
  57+ B58C 06 0E            ld b, FMODE_CREATE
  58+ B58E CF               rst #8
  59+ B58F 9A               db ESX_FOPEN
  60+ B590 38 23            jr c, .error
  61+ B592
  62+ B592 32 D2 B5         ld (.handle), a     ; Guardar handle
  63+ B595
  64+ B595                  ; Escribir datos
  65+ B595 DD 21 E8 B5      ld ix, ssid
  66+ B599 01 A0 00         ld bc, 160
  67+ B59C CF               rst #8
  68+ B59D 9E               db ESX_FWRITE
  69+ B59E 38 10            jr c, .close_error
  70+ B5A0
  71+ B5A0                  ; Sincronizar
  72+ B5A0 3A D2 B5         ld a, (.handle)
  73+ B5A3 CF               rst #8
  74+ B5A4 9C               db ESX_FSYNC
  75+ B5A5 38 09            jr c, .close_error
  76+ B5A7
  77+ B5A7                  ; Cerrar archivo
  78+ B5A7 3A D2 B5         ld a, (.handle)
  79+ B5AA CF               rst #8
  80+ B5AB 9B               db ESX_FCLOSE
  81+ B5AC 38 07            jr c, .error
  82+ B5AE
  83+ B5AE                  ; Éxito
  84+ B5AE B7               or a                ; CF = 0
  85+ B5AF C9               ret
  86+ B5B0
  87+ B5B0              .close_error
  88+ B5B0                  ; Intentar cerrar el archivo antes de reportar error
  89+ B5B0 3A D2 B5         ld a, (.handle)
  90+ B5B3 CF               rst #8
  91+ B5B4 9B               db ESX_FCLOSE
  92+ B5B5
  93+ B5B5              .error
  94+ B5B5                  ; Mostrar mensaje de error
  95+ B5B5 F5               push af
  96+ B5B6 21 D3 B5         ld hl, .err_msg
  97+ B5B9 CD 3B 80         call Display.putStrLog
  98+ B5BC F1               pop af
  99+ B5BD 37               scf                 ; CF = 1
 100+ B5BE C9               ret
 101+ B5BF
 102+ B5BF 2F 73 79 73  .filename db "/sys/config/iw.cfg", 0
 102+ B5C3 2F 63 6F 6E
 102+ B5C7 66 69 67 2F
 102+ B5CB 69 77 2E 63
 102+ B5CF 66 67 00
 103+ B5D2 00           .handle db 0
 104+ B5D3 0D 43 6F 6E  .err_msg db 13, "Config save failed!", 0
 104+ B5D7 66 69 67 20
 104+ B5DB 73 61 76 65
 104+ B5DF 20 66 61 69
 104+ B5E3 6C 65 64 21
 104+ B5E7 00
 105+ B5E8
 106+ B5E8 00 00 00...  ssid    ds 80
 107+ B638 00 00 00...  pass    ds 80
 108+ B688                  endmodule
 109+ B688
# file closed: modules/compat.asm
  31  B688
  32  B688                  ; ------------------------------------------------------------
  33  B688                  ; UART backend selection (SjASMPlus compatible)
  34  B688                  ;
  35  B688                  ; Build defines:
  36  B688                  ;   -DUNO  : ZX-Uno compatible UART (e.g., divMMC+ESP-12 boards such as DivTIESUS)
  37  B688                  ;   -DNEXT : ZX Spectrum Next UART
  38  B688                  ;   -DAY   : AY-3-8912 UART (ZX-Badaloc and similar)
  39  B688                  ;
  40  B688                  ; If none is provided, AY is used as a safe default.
  41  B688                  ; ------------------------------------------------------------
  42  B688                  IFDEF UNO
  43  B688 ~                    include "drivers/zxuno.asm"
  44  B688                  ELSE
  45  B688                      IFDEF NEXT
  46  B688 ~                        include "drivers/next.asm"
  47  B688                      ELSE
  48  B688                          include "drivers/ay.asm"
# file opened: drivers/ay.asm
   1+ B688                  module UartImpl
   2+ B688                  IFNDEF DOT
   3+ B688                      ASSERT $ > #8000
   4+ B688                  ENDIF
   5+ B688
   6+ B688              init:
   7+ B688 F3               di
   8+ B689 3E 07            ld a, #07
   9+ B68B 01 FD FF         ld bc, #fffd
  10+ B68E ED 79            out (c), a
  11+ B690 3E FC            ld a, #fc
  12+ B692 06 BF            ld b, #bf
  13+ B694 ED 79            out (c), a ; Enable read mode
  14+ B696
  15+ B696 3E 0E            ld a, #0e
  16+ B698 01 FD FF         ld bc, #fffd
  17+ B69B ED 79            out (c), a
  18+ B69D
  19+ B69D 06 BF            ld b, #bf
  20+ B69F ED 78            in a, (c)
  21+ B6A1 E6 FB            and #fb
  22+ B6A3 ED 79            out (c), a ; Make CTS low
  23+ B6A5
  24+ B6A5 FB               ei
  25+ B6A6 06 FF            ld b, #ff
  26+ B6A8              .flush
  27+ B6A8 76               halt
  28+ B6A9 10 FD            djnz .flush
  29+ B6AB CD C7 B7         call setSpeed
  30+ B6AE C9               ret
  31+ B6AF
  32+ B6AF              dataSequence:
  33+ B6AF                  ; (Sin cambios en la secuencia de datos)
  34+ B6AF F6 FE F6 FE      db  #f6,  #fe,  #f6,  #fe,  #fe,  #f6,  #f6,  #f6,  #f6,  #fe
  34+ B6B3 FE F6 F6 F6
  34+ B6B7 F6 FE
  35+ B6B9 F6 F6 FE F6      db  #f6,  #f6,  #fe,  #f6,  #fe,  #f6,  #f6,  #f6,  #f6,  #fe
  35+ B6BD FE F6 F6 F6
  35+ B6C1 F6 FE
  36+ B6C3 F6 FE F6 F6      db  #f6,  #fe,  #f6,  #f6,  #f6,  #f6,  #f6,  #fe,  #f6,  #fe
  36+ B6C7 F6 F6 F6 FE
  36+ B6CB F6 FE
  37+ B6CD F6 F6 F6 FE      db  #f6,  #f6,  #f6,  #fe,  #f6,  #fe,  #f6,  #fe,  #f6,  #fe
  37+ B6D1 F6 FE F6 FE
  37+ B6D5 F6 FE
  38+ B6D7 F6 FE FE F6      db  #f6,  #fe,  #fe,  #f6,  #fe,  #f6,  #fe,  #f6,  #f6,  #fe
  38+ B6DB FE F6 FE F6
  38+ B6DF F6 FE
  39+ B6E1 F6 FE F6 FE      db  #f6,  #fe,  #f6,  #fe,  #f6,  #fe,  #f6,  #fe,  #f6,  #fe
  39+ B6E5 F6 FE F6 FE
  39+ B6E9 F6 FE
  40+ B6EB F6 FE F6 F6      db  #f6,  #fe,  #f6,  #f6,  #f6,  #f6,  #f6,  #fe,  #f6,  #fe
  40+ B6EF F6 F6 F6 FE
  40+ B6F3 F6 FE
  41+ B6F5 F6 F6 FE F6      db  #f6,  #f6,  #fe,  #f6,  #f6,  #fe,  #f6,  #fe,  #f6,  #fe
  41+ B6F9 F6 FE F6 FE
  41+ B6FD F6 FE
  42+ B6FF F6 F6 F6 FE      db  #f6,  #f6,  #f6,  #fe,  #f6,  #fe,  #f6,  #fe,  #f6,  #fe
  42+ B703 F6 FE F6 FE
  42+ B707 F6 FE
  43+ B709 F6 FE FE FE      db  #f6,  #fe,  #fe,  #fe,  #fe,  #fe,  #f6,  #fe,  #f6,  #fe
  43+ B70D FE FE F6 FE
  43+ B711 F6 FE
  44+ B713 F6 F6 F6 FE      db  #f6,  #f6,  #f6,  #fe,  #f6,  #f6,  #f6,  #fe,  #f6,  #fe
  44+ B717 F6 F6 F6 FE
  44+ B71B F6 FE
  45+ B71D F6 FE F6 FE      db  #f6,  #fe,  #f6,  #fe,  #f6,  #f6,  #f6,  #fe,  #f6,  #fe
  45+ B721 F6 F6 F6 FE
  45+ B725 F6 FE
  46+ B727 F6 F6 FE FE      db  #f6,  #f6,  #fe,  #fe,  #f6,  #f6,  #f6,  #fe,  #f6,  #fe
  46+ B72B F6 F6 F6 FE
  46+ B72F F6 FE
  47+ B731 F6 FE F6 FE      db  #f6,  #fe,  #f6,  #fe,  #fe,  #fe,  #fe,  #f6,  #f6,  #fe
  47+ B735 FE FE FE F6
  47+ B739 F6 FE
  48+ B73B F6 FE F6 F6      db  #f6,  #fe,  #f6,  #f6,  #fe,  #fe,  #fe,  #f6,  #f6,  #fe
  48+ B73F FE FE FE F6
  48+ B743 F6 FE
  49+ B745 F6 F6 FE FE      db  #f6,  #f6,  #fe,  #fe,  #f6,  #fe,  #fe,  #f6,  #f6,  #fe
  49+ B749 F6 FE FE F6
  49+ B74D F6 FE
  50+ B74F F6 F6 F6 F6      db  #f6,  #f6,  #f6,  #f6,  #f6,  #fe,  #fe,  #f6,  #f6,  #fe
  50+ B753 F6 FE FE F6
  50+ B757 F6 FE
  51+ B759 F6 F6 F6 F6      db  #f6,  #f6,  #f6,  #f6,  #f6,  #fe,  #fe,  #f6,  #f6,  #fe
  51+ B75D F6 FE FE F6
  51+ B761 F6 FE
  52+ B763 F6 F6 F6 FE      db  #f6,  #f6,  #f6,  #fe,  #fe,  #f6,  #fe,  #f6,  #f6,  #fe
  52+ B767 FE F6 FE F6
  52+ B76B F6 FE
  53+ B76D F6 F6 F6 F6      db  #f6,  #f6,  #f6,  #f6,  #fe,  #fe,  #fe,  #f6,  #f6,  #fe
  53+ B771 FE FE FE F6
  53+ B775 F6 FE
  54+ B777 F6 F6 F6 FE      db  #f6,  #f6,  #f6,  #fe,  #fe,  #f6,  #fe,  #f6,  #f6,  #fe
  54+ B77B FE F6 FE F6
  54+ B77F F6 FE
  55+ B781 F6 FE F6 F6      db  #f6,  #fe,  #f6,  #f6,  #f6,  #fe,  #fe,  #f6,  #f6,  #fe
  55+ B785 F6 FE FE F6
  55+ B789 F6 FE
  56+ B78B F6 F6 F6 FE      db  #f6,  #f6,  #f6,  #fe,  #fe,  #f6,  #fe,  #f6,  #f6,  #fe
  56+ B78F FE F6 FE F6
  56+ B793 F6 FE
  57+ B795 F6 F6 F6 F6      db  #f6,  #f6,  #f6,  #f6,  #f6,  #fe,  #fe,  #f6,  #f6,  #fe
  57+ B799 F6 FE FE F6
  57+ B79D F6 FE
  58+ B79F F6 F6 F6 FE      db  #f6,  #f6,  #f6,  #fe,  #fe,  #f6,  #fe,  #f6,  #f6,  #fe
  58+ B7A3 FE F6 FE F6
  58+ B7A7 F6 FE
  59+ B7A9 F6 F6 FE F6      db  #f6,  #f6,  #fe,  #f6,  #f6,  #fe,  #fe,  #f6,  #f6,  #fe
  59+ B7AD F6 FE FE F6
  59+ B7B1 F6 FE
  60+ B7B3 F6 FE F6 FE      db  #f6,  #fe,  #f6,  #fe,  #fe,  #f6,  #f6,  #f6,  #f6,  #fe
  60+ B7B7 FE F6 F6 F6
  60+ B7BB F6 FE
  61+ B7BD F6 F6 FE F6      db  #f6,  #f6,  #fe,  #f6,  #fe,  #f6,  #f6,  #f6,  #f6,  #fe
  61+ B7C1 FE F6 F6 F6
  61+ B7C5 F6 FE
  62+ B7C7              dataSize = $ - dataSequence
  63+ B7C7
  64+ B7C7              setSpeed:
  65+ B7C7 21 AF B6         ld hl, dataSequence
  65+ B7CA 01 FD BF       ld bc, #bffd
  66+ B7CD F3               di
  67+ B7CE                  dup dataSize
  68+ B7CE ED A3       >    outi
  68+ B7D0 01 FD BF    >  ld bc, #bffd
  68+ B7D3 00          >  nop
  68+ B7D4 ED A3       >    outi
  68+ B7D6 01 FD BF    >  ld bc, #bffd
  68+ B7D9 00          >  nop
  68+ B7DA ED A3       >    outi
  68+ B7DC 01 FD BF    >  ld bc, #bffd
  68+ B7DF 00          >  nop
  68+ B7E0 ED A3       >    outi
  68+ B7E2 01 FD BF    >  ld bc, #bffd
  68+ B7E5 00          >  nop
  68+ B7E6 ED A3       >    outi
  68+ B7E8 01 FD BF    >  ld bc, #bffd
  68+ B7EB 00          >  nop
  68+ B7EC ED A3       >    outi
  68+ B7EE 01 FD BF    >  ld bc, #bffd
  68+ B7F1 00          >  nop
  68+ B7F2 ED A3       >    outi
  68+ B7F4 01 FD BF    >  ld bc, #bffd
  68+ B7F7 00          >  nop
  68+ B7F8 ED A3       >    outi
  68+ B7FA 01 FD BF    >  ld bc, #bffd
  68+ B7FD 00          >  nop
  68+ B7FE ED A3       >    outi
  68+ B800 01 FD BF    >  ld bc, #bffd
  68+ B803 00          >  nop
  68+ B804 ED A3       >    outi
  68+ B806 01 FD BF    >  ld bc, #bffd
  68+ B809 00          >  nop
  68+ B80A ED A3       >    outi
  68+ B80C 01 FD BF    >  ld bc, #bffd
  68+ B80F 00          >  nop
  68+ B810 ED A3       >    outi
  68+ B812 01 FD BF    >  ld bc, #bffd
  68+ B815 00          >  nop
  68+ B816 ED A3       >    outi
  68+ B818 01 FD BF    >  ld bc, #bffd
  68+ B81B 00          >  nop
  68+ B81C ED A3       >    outi
  68+ B81E 01 FD BF    >  ld bc, #bffd
  68+ B821 00          >  nop
  68+ B822 ED A3       >    outi
  68+ B824 01 FD BF    >  ld bc, #bffd
  68+ B827 00          >  nop
  68+ B828 ED A3       >    outi
  68+ B82A 01 FD BF    >  ld bc, #bffd
  68+ B82D 00          >  nop
  68+ B82E ED A3       >    outi
  68+ B830 01 FD BF    >  ld bc, #bffd
  68+ B833 00          >  nop
  68+ B834 ED A3       >    outi
  68+ B836 01 FD BF    >  ld bc, #bffd
  68+ B839 00          >  nop
  68+ B83A ED A3       >    outi
  68+ B83C 01 FD BF    >  ld bc, #bffd
  68+ B83F 00          >  nop
  68+ B840 ED A3       >    outi
  68+ B842 01 FD BF    >  ld bc, #bffd
  68+ B845 00          >  nop
  68+ B846 ED A3       >    outi
  68+ B848 01 FD BF    >  ld bc, #bffd
  68+ B84B 00          >  nop
  68+ B84C ED A3       >    outi
  68+ B84E 01 FD BF    >  ld bc, #bffd
  68+ B851 00          >  nop
  68+ B852 ED A3       >    outi
  68+ B854 01 FD BF    >  ld bc, #bffd
  68+ B857 00          >  nop
  68+ B858 ED A3       >    outi
  68+ B85A 01 FD BF    >  ld bc, #bffd
  68+ B85D 00          >  nop
  68+ B85E ED A3       >    outi
  68+ B860 01 FD BF    >  ld bc, #bffd
  68+ B863 00          >  nop
  68+ B864 ED A3       >    outi
  68+ B866 01 FD BF    >  ld bc, #bffd
  68+ B869 00          >  nop
  68+ B86A ED A3       >    outi
  68+ B86C 01 FD BF    >  ld bc, #bffd
  68+ B86F 00          >  nop
  68+ B870 ED A3       >    outi
  68+ B872 01 FD BF    >  ld bc, #bffd
  68+ B875 00          >  nop
  68+ B876 ED A3       >    outi
  68+ B878 01 FD BF    >  ld bc, #bffd
  68+ B87B 00          >  nop
  68+ B87C ED A3       >    outi
  68+ B87E 01 FD BF    >  ld bc, #bffd
  68+ B881 00          >  nop
  68+ B882 ED A3       >    outi
  68+ B884 01 FD BF    >  ld bc, #bffd
  68+ B887 00          >  nop
  68+ B888 ED A3       >    outi
  68+ B88A 01 FD BF    >  ld bc, #bffd
  68+ B88D 00          >  nop
  68+ B88E ED A3       >    outi
  68+ B890 01 FD BF    >  ld bc, #bffd
  68+ B893 00          >  nop
  68+ B894 ED A3       >    outi
  68+ B896 01 FD BF    >  ld bc, #bffd
  68+ B899 00          >  nop
  68+ B89A ED A3       >    outi
  68+ B89C 01 FD BF    >  ld bc, #bffd
  68+ B89F 00          >  nop
  68+ B8A0 ED A3       >    outi
  68+ B8A2 01 FD BF    >  ld bc, #bffd
  68+ B8A5 00          >  nop
  68+ B8A6 ED A3       >    outi
  68+ B8A8 01 FD BF    >  ld bc, #bffd
  68+ B8AB 00          >  nop
  68+ B8AC ED A3       >    outi
  68+ B8AE 01 FD BF    >  ld bc, #bffd
  68+ B8B1 00          >  nop
  68+ B8B2 ED A3       >    outi
  68+ B8B4 01 FD BF    >  ld bc, #bffd
  68+ B8B7 00          >  nop
  68+ B8B8 ED A3       >    outi
  68+ B8BA 01 FD BF    >  ld bc, #bffd
  68+ B8BD 00          >  nop
  68+ B8BE ED A3       >    outi
  68+ B8C0 01 FD BF    >  ld bc, #bffd
  68+ B8C3 00          >  nop
  68+ B8C4 ED A3       >    outi
  68+ B8C6 01 FD BF    >  ld bc, #bffd
  68+ B8C9 00          >  nop
  68+ B8CA ED A3       >    outi
  68+ B8CC 01 FD BF    >  ld bc, #bffd
  68+ B8CF 00          >  nop
  68+ B8D0 ED A3       >    outi
  68+ B8D2 01 FD BF    >  ld bc, #bffd
  68+ B8D5 00          >  nop
  68+ B8D6 ED A3       >    outi
  68+ B8D8 01 FD BF    >  ld bc, #bffd
  68+ B8DB 00          >  nop
  68+ B8DC ED A3       >    outi
  68+ B8DE 01 FD BF    >  ld bc, #bffd
  68+ B8E1 00          >  nop
  68+ B8E2 ED A3       >    outi
  68+ B8E4 01 FD BF    >  ld bc, #bffd
  68+ B8E7 00          >  nop
  68+ B8E8 ED A3       >    outi
  68+ B8EA 01 FD BF    >  ld bc, #bffd
  68+ B8ED 00          >  nop
  68+ B8EE ED A3       >    outi
  68+ B8F0 01 FD BF    >  ld bc, #bffd
  68+ B8F3 00          >  nop
  68+ B8F4 ED A3       >    outi
  68+ B8F6 01 FD BF    >  ld bc, #bffd
  68+ B8F9 00          >  nop
  68+ B8FA ED A3       >    outi
  68+ B8FC 01 FD BF    >  ld bc, #bffd
  68+ B8FF 00          >  nop
  68+ B900 ED A3       >    outi
  68+ B902 01 FD BF    >  ld bc, #bffd
  68+ B905 00          >  nop
  68+ B906 ED A3       >    outi
  68+ B908 01 FD BF    >  ld bc, #bffd
  68+ B90B 00          >  nop
  68+ B90C ED A3       >    outi
  68+ B90E 01 FD BF    >  ld bc, #bffd
  68+ B911 00          >  nop
  68+ B912 ED A3       >    outi
  68+ B914 01 FD BF    >  ld bc, #bffd
  68+ B917 00          >  nop
  68+ B918 ED A3       >    outi
  68+ B91A 01 FD BF    >  ld bc, #bffd
  68+ B91D 00          >  nop
  68+ B91E ED A3       >    outi
  68+ B920 01 FD BF    >  ld bc, #bffd
  68+ B923 00          >  nop
  68+ B924 ED A3       >    outi
  68+ B926 01 FD BF    >  ld bc, #bffd
  68+ B929 00          >  nop
  68+ B92A ED A3       >    outi
  68+ B92C 01 FD BF    >  ld bc, #bffd
  68+ B92F 00          >  nop
  68+ B930 ED A3       >    outi
  68+ B932 01 FD BF    >  ld bc, #bffd
  68+ B935 00          >  nop
  68+ B936 ED A3       >    outi
  68+ B938 01 FD BF    >  ld bc, #bffd
  68+ B93B 00          >  nop
  68+ B93C ED A3       >    outi
  68+ B93E 01 FD BF    >  ld bc, #bffd
  68+ B941 00          >  nop
  68+ B942 ED A3       >    outi
  68+ B944 01 FD BF    >  ld bc, #bffd
  68+ B947 00          >  nop
  68+ B948 ED A3       >    outi
  68+ B94A 01 FD BF    >  ld bc, #bffd
  68+ B94D 00          >  nop
  68+ B94E ED A3       >    outi
  68+ B950 01 FD BF    >  ld bc, #bffd
  68+ B953 00          >  nop
  68+ B954 ED A3       >    outi
  68+ B956 01 FD BF    >  ld bc, #bffd
  68+ B959 00          >  nop
  68+ B95A ED A3       >    outi
  68+ B95C 01 FD BF    >  ld bc, #bffd
  68+ B95F 00          >  nop
  68+ B960 ED A3       >    outi
  68+ B962 01 FD BF    >  ld bc, #bffd
  68+ B965 00          >  nop
  68+ B966 ED A3       >    outi
  68+ B968 01 FD BF    >  ld bc, #bffd
  68+ B96B 00          >  nop
  68+ B96C ED A3       >    outi
  68+ B96E 01 FD BF    >  ld bc, #bffd
  68+ B971 00          >  nop
  68+ B972 ED A3       >    outi
  68+ B974 01 FD BF    >  ld bc, #bffd
  68+ B977 00          >  nop
  68+ B978 ED A3       >    outi
  68+ B97A 01 FD BF    >  ld bc, #bffd
  68+ B97D 00          >  nop
  68+ B97E ED A3       >    outi
  68+ B980 01 FD BF    >  ld bc, #bffd
  68+ B983 00          >  nop
  68+ B984 ED A3       >    outi
  68+ B986 01 FD BF    >  ld bc, #bffd
  68+ B989 00          >  nop
  68+ B98A ED A3       >    outi
  68+ B98C 01 FD BF    >  ld bc, #bffd
  68+ B98F 00          >  nop
  68+ B990 ED A3       >    outi
  68+ B992 01 FD BF    >  ld bc, #bffd
  68+ B995 00          >  nop
  68+ B996 ED A3       >    outi
  68+ B998 01 FD BF    >  ld bc, #bffd
  68+ B99B 00          >  nop
  68+ B99C ED A3       >    outi
  68+ B99E 01 FD BF    >  ld bc, #bffd
  68+ B9A1 00          >  nop
  68+ B9A2 ED A3       >    outi
  68+ B9A4 01 FD BF    >  ld bc, #bffd
  68+ B9A7 00          >  nop
  68+ B9A8 ED A3       >    outi
  68+ B9AA 01 FD BF    >  ld bc, #bffd
  68+ B9AD 00          >  nop
  68+ B9AE ED A3       >    outi
  68+ B9B0 01 FD BF    >  ld bc, #bffd
  68+ B9B3 00          >  nop
  68+ B9B4 ED A3       >    outi
  68+ B9B6 01 FD BF    >  ld bc, #bffd
  68+ B9B9 00          >  nop
  68+ B9BA ED A3       >    outi
  68+ B9BC 01 FD BF    >  ld bc, #bffd
  68+ B9BF 00          >  nop
  68+ B9C0 ED A3       >    outi
  68+ B9C2 01 FD BF    >  ld bc, #bffd
  68+ B9C5 00          >  nop
  68+ B9C6 ED A3       >    outi
  68+ B9C8 01 FD BF    >  ld bc, #bffd
  68+ B9CB 00          >  nop
  68+ B9CC ED A3       >    outi
  68+ B9CE 01 FD BF    >  ld bc, #bffd
  68+ B9D1 00          >  nop
  68+ B9D2 ED A3       >    outi
  68+ B9D4 01 FD BF    >  ld bc, #bffd
  68+ B9D7 00          >  nop
  68+ B9D8 ED A3       >    outi
  68+ B9DA 01 FD BF    >  ld bc, #bffd
  68+ B9DD 00          >  nop
  68+ B9DE ED A3       >    outi
  68+ B9E0 01 FD BF    >  ld bc, #bffd
  68+ B9E3 00          >  nop
  68+ B9E4 ED A3       >    outi
  68+ B9E6 01 FD BF    >  ld bc, #bffd
  68+ B9E9 00          >  nop
  68+ B9EA ED A3       >    outi
  68+ B9EC 01 FD BF    >  ld bc, #bffd
  68+ B9EF 00          >  nop
  68+ B9F0 ED A3       >    outi
  68+ B9F2 01 FD BF    >  ld bc, #bffd
  68+ B9F5 00          >  nop
  68+ B9F6 ED A3       >    outi
  68+ B9F8 01 FD BF    >  ld bc, #bffd
  68+ B9FB 00          >  nop
  68+ B9FC ED A3       >    outi
  68+ B9FE 01 FD BF    >  ld bc, #bffd
  68+ BA01 00          >  nop
  68+ BA02 ED A3       >    outi
  68+ BA04 01 FD BF    >  ld bc, #bffd
  68+ BA07 00          >  nop
  68+ BA08 ED A3       >    outi
  68+ BA0A 01 FD BF    >  ld bc, #bffd
  68+ BA0D 00          >  nop
  68+ BA0E ED A3       >    outi
  68+ BA10 01 FD BF    >  ld bc, #bffd
  68+ BA13 00          >  nop
  68+ BA14 ED A3       >    outi
  68+ BA16 01 FD BF    >  ld bc, #bffd
  68+ BA19 00          >  nop
  68+ BA1A ED A3       >    outi
  68+ BA1C 01 FD BF    >  ld bc, #bffd
  68+ BA1F 00          >  nop
  68+ BA20 ED A3       >    outi
  68+ BA22 01 FD BF    >  ld bc, #bffd
  68+ BA25 00          >  nop
  68+ BA26 ED A3       >    outi
  68+ BA28 01 FD BF    >  ld bc, #bffd
  68+ BA2B 00          >  nop
  68+ BA2C ED A3       >    outi
  68+ BA2E 01 FD BF    >  ld bc, #bffd
  68+ BA31 00          >  nop
  68+ BA32 ED A3       >    outi
  68+ BA34 01 FD BF    >  ld bc, #bffd
  68+ BA37 00          >  nop
  68+ BA38 ED A3       >    outi
  68+ BA3A 01 FD BF    >  ld bc, #bffd
  68+ BA3D 00          >  nop
  68+ BA3E ED A3       >    outi
  68+ BA40 01 FD BF    >  ld bc, #bffd
  68+ BA43 00          >  nop
  68+ BA44 ED A3       >    outi
  68+ BA46 01 FD BF    >  ld bc, #bffd
  68+ BA49 00          >  nop
  68+ BA4A ED A3       >    outi
  68+ BA4C 01 FD BF    >  ld bc, #bffd
  68+ BA4F 00          >  nop
  68+ BA50 ED A3       >    outi
  68+ BA52 01 FD BF    >  ld bc, #bffd
  68+ BA55 00          >  nop
  68+ BA56 ED A3       >    outi
  68+ BA58 01 FD BF    >  ld bc, #bffd
  68+ BA5B 00          >  nop
  68+ BA5C ED A3       >    outi
  68+ BA5E 01 FD BF    >  ld bc, #bffd
  68+ BA61 00          >  nop
  68+ BA62 ED A3       >    outi
  68+ BA64 01 FD BF    >  ld bc, #bffd
  68+ BA67 00          >  nop
  68+ BA68 ED A3       >    outi
  68+ BA6A 01 FD BF    >  ld bc, #bffd
  68+ BA6D 00          >  nop
  68+ BA6E ED A3       >    outi
  68+ BA70 01 FD BF    >  ld bc, #bffd
  68+ BA73 00          >  nop
  68+ BA74 ED A3       >    outi
  68+ BA76 01 FD BF    >  ld bc, #bffd
  68+ BA79 00          >  nop
  68+ BA7A ED A3       >    outi
  68+ BA7C 01 FD BF    >  ld bc, #bffd
  68+ BA7F 00          >  nop
  68+ BA80 ED A3       >    outi
  68+ BA82 01 FD BF    >  ld bc, #bffd
  68+ BA85 00          >  nop
  68+ BA86 ED A3       >    outi
  68+ BA88 01 FD BF    >  ld bc, #bffd
  68+ BA8B 00          >  nop
  68+ BA8C ED A3       >    outi
  68+ BA8E 01 FD BF    >  ld bc, #bffd
  68+ BA91 00          >  nop
  68+ BA92 ED A3       >    outi
  68+ BA94 01 FD BF    >  ld bc, #bffd
  68+ BA97 00          >  nop
  68+ BA98 ED A3       >    outi
  68+ BA9A 01 FD BF    >  ld bc, #bffd
  68+ BA9D 00          >  nop
  68+ BA9E ED A3       >    outi
  68+ BAA0 01 FD BF    >  ld bc, #bffd
  68+ BAA3 00          >  nop
  68+ BAA4 ED A3       >    outi
  68+ BAA6 01 FD BF    >  ld bc, #bffd
  68+ BAA9 00          >  nop
  68+ BAAA ED A3       >    outi
  68+ BAAC 01 FD BF    >  ld bc, #bffd
  68+ BAAF 00          >  nop
  68+ BAB0 ED A3       >    outi
  68+ BAB2 01 FD BF    >  ld bc, #bffd
  68+ BAB5 00          >  nop
  68+ BAB6 ED A3       >    outi
  68+ BAB8 01 FD BF    >  ld bc, #bffd
  68+ BABB 00          >  nop
  68+ BABC ED A3       >    outi
  68+ BABE 01 FD BF    >  ld bc, #bffd
  68+ BAC1 00          >  nop
  68+ BAC2 ED A3       >    outi
  68+ BAC4 01 FD BF    >  ld bc, #bffd
  68+ BAC7 00          >  nop
  68+ BAC8 ED A3       >    outi
  68+ BACA 01 FD BF    >  ld bc, #bffd
  68+ BACD 00          >  nop
  68+ BACE ED A3       >    outi
  68+ BAD0 01 FD BF    >  ld bc, #bffd
  68+ BAD3 00          >  nop
  68+ BAD4 ED A3       >    outi
  68+ BAD6 01 FD BF    >  ld bc, #bffd
  68+ BAD9 00          >  nop
  68+ BADA ED A3       >    outi
  68+ BADC 01 FD BF    >  ld bc, #bffd
  68+ BADF 00          >  nop
  68+ BAE0 ED A3       >    outi
  68+ BAE2 01 FD BF    >  ld bc, #bffd
  68+ BAE5 00          >  nop
  68+ BAE6 ED A3       >    outi
  68+ BAE8 01 FD BF    >  ld bc, #bffd
  68+ BAEB 00          >  nop
  68+ BAEC ED A3       >    outi
  68+ BAEE 01 FD BF    >  ld bc, #bffd
  68+ BAF1 00          >  nop
  68+ BAF2 ED A3       >    outi
  68+ BAF4 01 FD BF    >  ld bc, #bffd
  68+ BAF7 00          >  nop
  68+ BAF8 ED A3       >    outi
  68+ BAFA 01 FD BF    >  ld bc, #bffd
  68+ BAFD 00          >  nop
  68+ BAFE ED A3       >    outi
  68+ BB00 01 FD BF    >  ld bc, #bffd
  68+ BB03 00          >  nop
  68+ BB04 ED A3       >    outi
  68+ BB06 01 FD BF    >  ld bc, #bffd
  68+ BB09 00          >  nop
  68+ BB0A ED A3       >    outi
  68+ BB0C 01 FD BF    >  ld bc, #bffd
  68+ BB0F 00          >  nop
  68+ BB10 ED A3       >    outi
  68+ BB12 01 FD BF    >  ld bc, #bffd
  68+ BB15 00          >  nop
  68+ BB16 ED A3       >    outi
  68+ BB18 01 FD BF    >  ld bc, #bffd
  68+ BB1B 00          >  nop
  68+ BB1C ED A3       >    outi
  68+ BB1E 01 FD BF    >  ld bc, #bffd
  68+ BB21 00          >  nop
  68+ BB22 ED A3       >    outi
  68+ BB24 01 FD BF    >  ld bc, #bffd
  68+ BB27 00          >  nop
  68+ BB28 ED A3       >    outi
  68+ BB2A 01 FD BF    >  ld bc, #bffd
  68+ BB2D 00          >  nop
  68+ BB2E ED A3       >    outi
  68+ BB30 01 FD BF    >  ld bc, #bffd
  68+ BB33 00          >  nop
  68+ BB34 ED A3       >    outi
  68+ BB36 01 FD BF    >  ld bc, #bffd
  68+ BB39 00          >  nop
  68+ BB3A ED A3       >    outi
  68+ BB3C 01 FD BF    >  ld bc, #bffd
  68+ BB3F 00          >  nop
  68+ BB40 ED A3       >    outi
  68+ BB42 01 FD BF    >  ld bc, #bffd
  68+ BB45 00          >  nop
  68+ BB46 ED A3       >    outi
  68+ BB48 01 FD BF    >  ld bc, #bffd
  68+ BB4B 00          >  nop
  68+ BB4C ED A3       >    outi
  68+ BB4E 01 FD BF    >  ld bc, #bffd
  68+ BB51 00          >  nop
  68+ BB52 ED A3       >    outi
  68+ BB54 01 FD BF    >  ld bc, #bffd
  68+ BB57 00          >  nop
  68+ BB58 ED A3       >    outi
  68+ BB5A 01 FD BF    >  ld bc, #bffd
  68+ BB5D 00          >  nop
  68+ BB5E ED A3       >    outi
  68+ BB60 01 FD BF    >  ld bc, #bffd
  68+ BB63 00          >  nop
  68+ BB64 ED A3       >    outi
  68+ BB66 01 FD BF    >  ld bc, #bffd
  68+ BB69 00          >  nop
  68+ BB6A ED A3       >    outi
  68+ BB6C 01 FD BF    >  ld bc, #bffd
  68+ BB6F 00          >  nop
  68+ BB70 ED A3       >    outi
  68+ BB72 01 FD BF    >  ld bc, #bffd
  68+ BB75 00          >  nop
  68+ BB76 ED A3       >    outi
  68+ BB78 01 FD BF    >  ld bc, #bffd
  68+ BB7B 00          >  nop
  68+ BB7C ED A3       >    outi
  68+ BB7E 01 FD BF    >  ld bc, #bffd
  68+ BB81 00          >  nop
  68+ BB82 ED A3       >    outi
  68+ BB84 01 FD BF    >  ld bc, #bffd
  68+ BB87 00          >  nop
  68+ BB88 ED A3       >    outi
  68+ BB8A 01 FD BF    >  ld bc, #bffd
  68+ BB8D 00          >  nop
  68+ BB8E ED A3       >    outi
  68+ BB90 01 FD BF    >  ld bc, #bffd
  68+ BB93 00          >  nop
  68+ BB94 ED A3       >    outi
  68+ BB96 01 FD BF    >  ld bc, #bffd
  68+ BB99 00          >  nop
  68+ BB9A ED A3       >    outi
  68+ BB9C 01 FD BF    >  ld bc, #bffd
  68+ BB9F 00          >  nop
  68+ BBA0 ED A3       >    outi
  68+ BBA2 01 FD BF    >  ld bc, #bffd
  68+ BBA5 00          >  nop
  68+ BBA6 ED A3       >    outi
  68+ BBA8 01 FD BF    >  ld bc, #bffd
  68+ BBAB 00          >  nop
  68+ BBAC ED A3       >    outi
  68+ BBAE 01 FD BF    >  ld bc, #bffd
  68+ BBB1 00          >  nop
  68+ BBB2 ED A3       >    outi
  68+ BBB4 01 FD BF    >  ld bc, #bffd
  68+ BBB7 00          >  nop
  68+ BBB8 ED A3       >    outi
  68+ BBBA 01 FD BF    >  ld bc, #bffd
  68+ BBBD 00          >  nop
  68+ BBBE ED A3       >    outi
  68+ BBC0 01 FD BF    >  ld bc, #bffd
  68+ BBC3 00          >  nop
  68+ BBC4 ED A3       >    outi
  68+ BBC6 01 FD BF    >  ld bc, #bffd
  68+ BBC9 00          >  nop
  68+ BBCA ED A3       >    outi
  68+ BBCC 01 FD BF    >  ld bc, #bffd
  68+ BBCF 00          >  nop
  68+ BBD0 ED A3       >    outi
  68+ BBD2 01 FD BF    >  ld bc, #bffd
  68+ BBD5 00          >  nop
  68+ BBD6 ED A3       >    outi
  68+ BBD8 01 FD BF    >  ld bc, #bffd
  68+ BBDB 00          >  nop
  68+ BBDC ED A3       >    outi
  68+ BBDE 01 FD BF    >  ld bc, #bffd
  68+ BBE1 00          >  nop
  68+ BBE2 ED A3       >    outi
  68+ BBE4 01 FD BF    >  ld bc, #bffd
  68+ BBE7 00          >  nop
  68+ BBE8 ED A3       >    outi
  68+ BBEA 01 FD BF    >  ld bc, #bffd
  68+ BBED 00          >  nop
  68+ BBEE ED A3       >    outi
  68+ BBF0 01 FD BF    >  ld bc, #bffd
  68+ BBF3 00          >  nop
  68+ BBF4 ED A3       >    outi
  68+ BBF6 01 FD BF    >  ld bc, #bffd
  68+ BBF9 00          >  nop
  68+ BBFA ED A3       >    outi
  68+ BBFC 01 FD BF    >  ld bc, #bffd
  68+ BBFF 00          >  nop
  68+ BC00 ED A3       >    outi
  68+ BC02 01 FD BF    >  ld bc, #bffd
  68+ BC05 00          >  nop
  68+ BC06 ED A3       >    outi
  68+ BC08 01 FD BF    >  ld bc, #bffd
  68+ BC0B 00          >  nop
  68+ BC0C ED A3       >    outi
  68+ BC0E 01 FD BF    >  ld bc, #bffd
  68+ BC11 00          >  nop
  68+ BC12 ED A3       >    outi
  68+ BC14 01 FD BF    >  ld bc, #bffd
  68+ BC17 00          >  nop
  68+ BC18 ED A3       >    outi
  68+ BC1A 01 FD BF    >  ld bc, #bffd
  68+ BC1D 00          >  nop
  68+ BC1E ED A3       >    outi
  68+ BC20 01 FD BF    >  ld bc, #bffd
  68+ BC23 00          >  nop
  68+ BC24 ED A3       >    outi
  68+ BC26 01 FD BF    >  ld bc, #bffd
  68+ BC29 00          >  nop
  68+ BC2A ED A3       >    outi
  68+ BC2C 01 FD BF    >  ld bc, #bffd
  68+ BC2F 00          >  nop
  68+ BC30 ED A3       >    outi
  68+ BC32 01 FD BF    >  ld bc, #bffd
  68+ BC35 00          >  nop
  68+ BC36 ED A3       >    outi
  68+ BC38 01 FD BF    >  ld bc, #bffd
  68+ BC3B 00          >  nop
  68+ BC3C ED A3       >    outi
  68+ BC3E 01 FD BF    >  ld bc, #bffd
  68+ BC41 00          >  nop
  68+ BC42 ED A3       >    outi
  68+ BC44 01 FD BF    >  ld bc, #bffd
  68+ BC47 00          >  nop
  68+ BC48 ED A3       >    outi
  68+ BC4A 01 FD BF    >  ld bc, #bffd
  68+ BC4D 00          >  nop
  68+ BC4E ED A3       >    outi
  68+ BC50 01 FD BF    >  ld bc, #bffd
  68+ BC53 00          >  nop
  68+ BC54 ED A3       >    outi
  68+ BC56 01 FD BF    >  ld bc, #bffd
  68+ BC59 00          >  nop
  68+ BC5A ED A3       >    outi
  68+ BC5C 01 FD BF    >  ld bc, #bffd
  68+ BC5F 00          >  nop
  68+ BC60 ED A3       >    outi
  68+ BC62 01 FD BF    >  ld bc, #bffd
  68+ BC65 00          >  nop
  68+ BC66 ED A3       >    outi
  68+ BC68 01 FD BF    >  ld bc, #bffd
  68+ BC6B 00          >  nop
  68+ BC6C ED A3       >    outi
  68+ BC6E 01 FD BF    >  ld bc, #bffd
  68+ BC71 00          >  nop
  68+ BC72 ED A3       >    outi
  68+ BC74 01 FD BF    >  ld bc, #bffd
  68+ BC77 00          >  nop
  68+ BC78 ED A3       >    outi
  68+ BC7A 01 FD BF    >  ld bc, #bffd
  68+ BC7D 00          >  nop
  68+ BC7E ED A3       >    outi
  68+ BC80 01 FD BF    >  ld bc, #bffd
  68+ BC83 00          >  nop
  68+ BC84 ED A3       >    outi
  68+ BC86 01 FD BF    >  ld bc, #bffd
  68+ BC89 00          >  nop
  68+ BC8A ED A3       >    outi
  68+ BC8C 01 FD BF    >  ld bc, #bffd
  68+ BC8F 00          >  nop
  68+ BC90 ED A3       >    outi
  68+ BC92 01 FD BF    >  ld bc, #bffd
  68+ BC95 00          >  nop
  68+ BC96 ED A3       >    outi
  68+ BC98 01 FD BF    >  ld bc, #bffd
  68+ BC9B 00          >  nop
  68+ BC9C ED A3       >    outi
  68+ BC9E 01 FD BF    >  ld bc, #bffd
  68+ BCA1 00          >  nop
  68+ BCA2 ED A3       >    outi
  68+ BCA4 01 FD BF    >  ld bc, #bffd
  68+ BCA7 00          >  nop
  68+ BCA8 ED A3       >    outi
  68+ BCAA 01 FD BF    >  ld bc, #bffd
  68+ BCAD 00          >  nop
  68+ BCAE ED A3       >    outi
  68+ BCB0 01 FD BF    >  ld bc, #bffd
  68+ BCB3 00          >  nop
  68+ BCB4 ED A3       >    outi
  68+ BCB6 01 FD BF    >  ld bc, #bffd
  68+ BCB9 00          >  nop
  68+ BCBA ED A3       >    outi
  68+ BCBC 01 FD BF    >  ld bc, #bffd
  68+ BCBF 00          >  nop
  68+ BCC0 ED A3       >    outi
  68+ BCC2 01 FD BF    >  ld bc, #bffd
  68+ BCC5 00          >  nop
  68+ BCC6 ED A3       >    outi
  68+ BCC8 01 FD BF    >  ld bc, #bffd
  68+ BCCB 00          >  nop
  68+ BCCC ED A3       >    outi
  68+ BCCE 01 FD BF    >  ld bc, #bffd
  68+ BCD1 00          >  nop
  68+ BCD2 ED A3       >    outi
  68+ BCD4 01 FD BF    >  ld bc, #bffd
  68+ BCD7 00          >  nop
  68+ BCD8 ED A3       >    outi
  68+ BCDA 01 FD BF    >  ld bc, #bffd
  68+ BCDD 00          >  nop
  68+ BCDE ED A3       >    outi
  68+ BCE0 01 FD BF    >  ld bc, #bffd
  68+ BCE3 00          >  nop
  68+ BCE4 ED A3       >    outi
  68+ BCE6 01 FD BF    >  ld bc, #bffd
  68+ BCE9 00          >  nop
  68+ BCEA ED A3       >    outi
  68+ BCEC 01 FD BF    >  ld bc, #bffd
  68+ BCEF 00          >  nop
  68+ BCF0 ED A3       >    outi
  68+ BCF2 01 FD BF    >  ld bc, #bffd
  68+ BCF5 00          >  nop
  68+ BCF6 ED A3       >    outi
  68+ BCF8 01 FD BF    >  ld bc, #bffd
  68+ BCFB 00          >  nop
  68+ BCFC ED A3       >    outi
  68+ BCFE 01 FD BF    >  ld bc, #bffd
  68+ BD01 00          >  nop
  68+ BD02 ED A3       >    outi
  68+ BD04 01 FD BF    >  ld bc, #bffd
  68+ BD07 00          >  nop
  68+ BD08 ED A3       >    outi
  68+ BD0A 01 FD BF    >  ld bc, #bffd
  68+ BD0D 00          >  nop
  68+ BD0E ED A3       >    outi
  68+ BD10 01 FD BF    >  ld bc, #bffd
  68+ BD13 00          >  nop
  68+ BD14 ED A3       >    outi
  68+ BD16 01 FD BF    >  ld bc, #bffd
  68+ BD19 00          >  nop
  68+ BD1A ED A3       >    outi
  68+ BD1C 01 FD BF    >  ld bc, #bffd
  68+ BD1F 00          >  nop
  68+ BD20 ED A3       >    outi
  68+ BD22 01 FD BF    >  ld bc, #bffd
  68+ BD25 00          >  nop
  68+ BD26 ED A3       >    outi
  68+ BD28 01 FD BF    >  ld bc, #bffd
  68+ BD2B 00          >  nop
  68+ BD2C ED A3       >    outi
  68+ BD2E 01 FD BF    >  ld bc, #bffd
  68+ BD31 00          >  nop
  68+ BD32 ED A3       >    outi
  68+ BD34 01 FD BF    >  ld bc, #bffd
  68+ BD37 00          >  nop
  68+ BD38 ED A3       >    outi
  68+ BD3A 01 FD BF    >  ld bc, #bffd
  68+ BD3D 00          >  nop
  68+ BD3E ED A3       >    outi
  68+ BD40 01 FD BF    >  ld bc, #bffd
  68+ BD43 00          >  nop
  68+ BD44 ED A3       >    outi
  68+ BD46 01 FD BF    >  ld bc, #bffd
  68+ BD49 00          >  nop
  68+ BD4A ED A3       >    outi
  68+ BD4C 01 FD BF    >  ld bc, #bffd
  68+ BD4F 00          >  nop
  68+ BD50 ED A3       >    outi
  68+ BD52 01 FD BF    >  ld bc, #bffd
  68+ BD55 00          >  nop
  68+ BD56 ED A3       >    outi
  68+ BD58 01 FD BF    >  ld bc, #bffd
  68+ BD5B 00          >  nop
  68+ BD5C ED A3       >    outi
  68+ BD5E 01 FD BF    >  ld bc, #bffd
  68+ BD61 00          >  nop
  68+ BD62 ED A3       >    outi
  68+ BD64 01 FD BF    >  ld bc, #bffd
  68+ BD67 00          >  nop
  68+ BD68 ED A3       >    outi
  68+ BD6A 01 FD BF    >  ld bc, #bffd
  68+ BD6D 00          >  nop
  68+ BD6E ED A3       >    outi
  68+ BD70 01 FD BF    >  ld bc, #bffd
  68+ BD73 00          >  nop
  68+ BD74 ED A3       >    outi
  68+ BD76 01 FD BF    >  ld bc, #bffd
  68+ BD79 00          >  nop
  68+ BD7A ED A3       >    outi
  68+ BD7C 01 FD BF    >  ld bc, #bffd
  68+ BD7F 00          >  nop
  68+ BD80 ED A3       >    outi
  68+ BD82 01 FD BF    >  ld bc, #bffd
  68+ BD85 00          >  nop
  68+ BD86 ED A3       >    outi
  68+ BD88 01 FD BF    >  ld bc, #bffd
  68+ BD8B 00          >  nop
  68+ BD8C ED A3       >    outi
  68+ BD8E 01 FD BF    >  ld bc, #bffd
  68+ BD91 00          >  nop
  68+ BD92 ED A3       >    outi
  68+ BD94 01 FD BF    >  ld bc, #bffd
  68+ BD97 00          >  nop
  68+ BD98 ED A3       >    outi
  68+ BD9A 01 FD BF    >  ld bc, #bffd
  68+ BD9D 00          >  nop
  68+ BD9E ED A3       >    outi
  68+ BDA0 01 FD BF    >  ld bc, #bffd
  68+ BDA3 00          >  nop
  68+ BDA4 ED A3       >    outi
  68+ BDA6 01 FD BF    >  ld bc, #bffd
  68+ BDA9 00          >  nop
  68+ BDAA ED A3       >    outi
  68+ BDAC 01 FD BF    >  ld bc, #bffd
  68+ BDAF 00          >  nop
  68+ BDB0 ED A3       >    outi
  68+ BDB2 01 FD BF    >  ld bc, #bffd
  68+ BDB5 00          >  nop
  68+ BDB6 ED A3       >    outi
  68+ BDB8 01 FD BF    >  ld bc, #bffd
  68+ BDBB 00          >  nop
  68+ BDBC ED A3       >    outi
  68+ BDBE 01 FD BF    >  ld bc, #bffd
  68+ BDC1 00          >  nop
  68+ BDC2 ED A3       >    outi
  68+ BDC4 01 FD BF    >  ld bc, #bffd
  68+ BDC7 00          >  nop
  68+ BDC8 ED A3       >    outi
  68+ BDCA 01 FD BF    >  ld bc, #bffd
  68+ BDCD 00          >  nop
  68+ BDCE ED A3       >    outi
  68+ BDD0 01 FD BF    >  ld bc, #bffd
  68+ BDD3 00          >  nop
  68+ BDD4 ED A3       >    outi
  68+ BDD6 01 FD BF    >  ld bc, #bffd
  68+ BDD9 00          >  nop
  68+ BDDA ED A3       >    outi
  68+ BDDC 01 FD BF    >  ld bc, #bffd
  68+ BDDF 00          >  nop
  68+ BDE0 ED A3       >    outi
  68+ BDE2 01 FD BF    >  ld bc, #bffd
  68+ BDE5 00          >  nop
  68+ BDE6 ED A3       >    outi
  68+ BDE8 01 FD BF    >  ld bc, #bffd
  68+ BDEB 00          >  nop
  68+ BDEC ED A3       >    outi
  68+ BDEE 01 FD BF    >  ld bc, #bffd
  68+ BDF1 00          >  nop
  68+ BDF2 ED A3       >    outi
  68+ BDF4 01 FD BF    >  ld bc, #bffd
  68+ BDF7 00          >  nop
  68+ BDF8 ED A3       >    outi
  68+ BDFA 01 FD BF    >  ld bc, #bffd
  68+ BDFD 00          >  nop
  68+ BDFE ED A3       >    outi
  68+ BE00 01 FD BF    >  ld bc, #bffd
  68+ BE03 00          >  nop
  68+ BE04 ED A3       >    outi
  68+ BE06 01 FD BF    >  ld bc, #bffd
  68+ BE09 00          >  nop
  68+ BE0A ED A3       >    outi
  68+ BE0C 01 FD BF    >  ld bc, #bffd
  68+ BE0F 00          >  nop
  68+ BE10 ED A3       >    outi
  68+ BE12 01 FD BF    >  ld bc, #bffd
  68+ BE15 00          >  nop
  68+ BE16 ED A3       >    outi
  68+ BE18 01 FD BF    >  ld bc, #bffd
  68+ BE1B 00          >  nop
  68+ BE1C ED A3       >    outi
  68+ BE1E 01 FD BF    >  ld bc, #bffd
  68+ BE21 00          >  nop
  68+ BE22 ED A3       >    outi
  68+ BE24 01 FD BF    >  ld bc, #bffd
  68+ BE27 00          >  nop
  68+ BE28 ED A3       >    outi
  68+ BE2A 01 FD BF    >  ld bc, #bffd
  68+ BE2D 00          >  nop
  68+ BE2E ED A3       >    outi
  68+ BE30 01 FD BF    >  ld bc, #bffd
  68+ BE33 00          >  nop
  68+ BE34 ED A3       >    outi
  68+ BE36 01 FD BF    >  ld bc, #bffd
  68+ BE39 00          >  nop
  68+ BE3A ED A3       >    outi
  68+ BE3C 01 FD BF    >  ld bc, #bffd
  68+ BE3F 00          >  nop
  68+ BE40 ED A3       >    outi
  68+ BE42 01 FD BF    >  ld bc, #bffd
  68+ BE45 00          >  nop
  68+ BE46 ED A3       >    outi
  68+ BE48 01 FD BF    >  ld bc, #bffd
  68+ BE4B 00          >  nop
  68+ BE4C ED A3       >    outi
  68+ BE4E 01 FD BF    >  ld bc, #bffd
  68+ BE51 00          >  nop
  68+ BE52 ED A3       >    outi
  68+ BE54 01 FD BF    >  ld bc, #bffd
  68+ BE57 00          >  nop
  68+ BE58 ED A3       >    outi
  68+ BE5A 01 FD BF    >  ld bc, #bffd
  68+ BE5D 00          >  nop
  69+ BE5E                  edup
  70+ BE5E FB               ei
  71+ BE5F C9               ret
  72+ BE60
  73+ BE60
  74+ BE60              write:
  75+ BE60 F3               di
  76+ BE61 E5 D5 C5         push hl, de, bc
  77+ BE64 F5               push af
  78+ BE65 0E FD            ld c, #fd ; prepare port addresses
  79+ BE67 16 FF            ld d, #ff
  80+ BE69 1E BF            ld e, #bf
  81+ BE6B 42               ld b, d
  82+ BE6C
  83+ BE6C 3E 0E            ld a, #0e
  84+ BE6E ED 79            out (c), a ; Select AY's PORT A
  85+ BE70
  86+ BE70 2A AF BF         ld hl, (_baud)
  87+ BE73 11 02 00         ld de, #0002
  88+ BE76 B7               or a
  89+ BE77 ED 52            sbc hl, de
  90+ BE79 EB               ex hl, de
  91+ BE7A
  92+ BE7A F1               pop af
  93+ BE7B 2F               cpl
  94+ BE7C 37               scf
  95+ BE7D 06 0B            ld b, #0b ; Numbers of bits - 1 start, 8 data, 2 stop
  96+ BE7F
  97+ BE7F F3               di ; Hard timing starts
  98+ BE80              transmitBit:
  99+ BE80 C5               push bc
 100+ BE81 F5               push af
 101+ BE82
 102+ BE82 3E FE            ld a, #fe
 103+ BE84 62               ld h, d
 104+ BE85 6B               ld l, e
 105+ BE86 01 FD BF         ld bc, #bffd
 106+ BE89 D2 92 BE         jp nc, transmitOne
 107+ BE8C              ; Transmit Zero:
 108+ BE8C E6 F7            and #f7
 109+ BE8E ED 79            out (c), a
 110+ BE90 18 06            jr transmitNext
 111+ BE92              transmitOne:
 112+ BE92 F6 08            or 8
 113+ BE94 ED 79            out (c), a
 114+ BE96 18 00            jr transmitNext
 115+ BE98
 116+ BE98              transmitNext:
 117+ BE98 2B               dec hl
 118+ BE99 7C               ld a, h
 119+ BE9A B5               or l
 120+ BE9B 20 FB            jr nz, transmitNext
 121+ BE9D
 122+ BE9D 00               nop
 123+ BE9E 00               nop
 124+ BE9F 00               nop
 125+ BEA0
 126+ BEA0 F1               pop af
 127+ BEA1 C1               pop bc
 128+ BEA2 B7               or a
 129+ BEA3 1F               rra
 130+ BEA4 10 DA            djnz transmitBit
 131+ BEA6 D9               exx
 132+ BEA7 FB               ei
 133+ BEA8 C1 D1 E1         pop bc, de, hl
 134+ BEAB C9               ret
 135+ BEAC
 136+ BEAC              ; read: Alias para compatibilidad con uart-common.asm
 137+ BEAC              read:
 138+ BEAC C5 D5 E5         push bc, de, hl
 139+ BEAF CD B8 BE         call uartRead
 140+ BEB2 E1 D1 C1         pop hl, de, bc
 141+ BEB5 D8               ret c
 142+ BEB6 18 F4            jr read
 143+ BEB8
 144+ BEB8              uartRead:
 145+ BEB8 21 B1 BF         ld hl, _isSecondByteAvail
 146+ BEBB 7E               ld a, (hl)
 147+ BEBC A7               and a
 148+ BEBD 28 06            jr z, startReadByte
 149+ BEBF 36 00            ld (hl), 0
 150+ BEC1 23               inc hl
 151+ BEC2 7E               ld a, (hl)
 152+ BEC3 37               scf
 153+ BEC4 C9               ret
 154+ BEC5              startReadByte:
 155+ BEC5 F3               di
 156+ BEC6                  ; --- UX MEJORADA: Pulso sutil ROJO (Esperando) ---
 157+ BEC6 3E 02            ld a, 2
 158+ BEC8 D3 FE            out (#fe), a    ; Borde ROJO
 159+ BECA AF               xor a
 160+ BECB D3 FE            out (#fe), a    ; Borde NEGRO inmediatamente
 161+ BECD                  ; -----------------------------------------------
 162+ BECD
 163+ BECD AF               xor a
 164+ BECE D9               exx
 165+ BECF ED 5B AF BF      ld de, (_baud)
 166+ BED3 2A AF BF         ld hl, (_baud)
 167+ BED6 CB 3C            srl h
 168+ BED8 CB 1D            rr l  ; HL=_baud/2
 169+ BEDA B7               or a
 170+ BEDB 06 FA            ld b, #FA ; Wait look length
 171+ BEDD D9               exx
 172+ BEDE 0E FD            ld c, #fd
 173+ BEE0 16 FF            ld d, #ff
 174+ BEE2 1E BF            ld e, #bf
 175+ BEE4 42               ld b, d
 176+ BEE5 3E 0E            ld a, #0e
 177+ BEE7 ED 79            out (c), a
 178+ BEE9 ED 78            in a, (c)
 179+ BEEB F6 F0            or #f0      ; Input lines is 1
 180+ BEED E6 FB            and #fb     ; CTS force to 0
 181+ BEEF 43               ld b, e     ; B = #BF
 182+ BEF0 ED 79            out (c), a  ; Make CTS high
 183+ BEF2 67               ld h, a
 184+ BEF3
 185+ BEF3              waitStartBit:
 186+ BEF3 42               ld b, d
 187+ BEF4 ED 78            in a, (c)
 188+ BEF6 E6 80            and #80
 189+ BEF8 28 09            jr z, startBitFound
 190+ BEFA              readTimeOut:
 191+ BEFA D9               exx
 192+ BEFB 05               dec b
 193+ BEFC D9               exx
 194+ BEFD 20 F4            jr nz, waitStartBit
 195+ BEFF AF               xor a
 196+ BF00 F5               push af
 197+ BF01 18 40            jr readFinish
 198+ BF03              startBitFound:
 199+ BF03 ED 78            in a, (c)
 200+ BF05 E6 80            and #80
 201+ BF07 20 F1            jr nz, readTimeOut
 202+ BF09
 203+ BF09                  ; --- UX MEJORADA: Pulso sutil CYAN (Leyendo) ---
 204+ BF09 3E 05            ld a, 5
 205+ BF0B D3 FE            out (#fe), a    ; Borde CYAN
 206+ BF0D AF               xor a
 207+ BF0E D3 FE            out (#fe), a    ; Borde NEGRO inmediatamente
 208+ BF10                  ; ----------------------------------------------
 209+ BF10
 210+ BF10 ED 78            in a, (c)
 211+ BF12 E6 80            and #80
 212+ BF14 20 E4            jr nz, readTimeOut
 213+ BF16                  ;; Start bit found!
 214+ BF16
 215+ BF16 D9               exx
 216+ BF17 01 FD FF         ld bc, #fffd
 217+ BF1A 3E 80            ld a, #80
 218+ BF1C 08               ex af, af
 219+ BF1D              readTune:
 220+ BF1D 19               add hl, de ; HL = 1.5 * _baud
 221+ BF1E 00               nop
 222+ BF1F 00               nop
 223+ BF20 00               nop
 224+ BF21 00               nop ; Fine tuning delay
 225+ BF22
 226+ BF22              bdDelay:
 227+ BF22 2B               dec hl
 228+ BF23 7C               ld a, h
 229+ BF24 B5               or l
 230+ BF25 20 FB            jr nz, bdDelay
 231+ BF27
 232+ BF27 ED 78            in a, (c)
 233+ BF29 E6 80            and #80
 234+ BF2B CA 37 BF         jp z, zeroReceived
 235+ BF2E              ; One received:
 236+ BF2E 08               ex af, af
 237+ BF2F 37               scf
 238+ BF30 1F               rra
 239+ BF31 38 0D            jr c, receivedByte
 240+ BF33 08               ex af, af
 241+ BF34 C3 1D BF         jp readTune
 242+ BF37              zeroReceived:
 243+ BF37 08               ex af, af
 244+ BF38 B7               or a
 245+ BF39 1F               RRA
 246+ BF3A 38 04            jr c, receivedByte
 247+ BF3C 08               ex af, af
 248+ BF3D C3 1D BF         jp readTune
 249+ BF40              receivedByte:
 250+ BF40 37               scf
 251+ BF41 F5               push af
 252+ BF42 D9               exx
 253+ BF43              readFinish:
 254+ BF43 7C               ld a, h
 255+ BF44 F6 04            or #04
 256+ BF46 43               ld b, e
 257+ BF47 ED 79            out (c), a
 258+ BF49
 259+ BF49 D9               exx
 260+ BF4A 62               ld h, d
 261+ BF4B 6B               ld l, e
 262+ BF4C
 263+ BF4C 01 07 00         ld bc, #0007
 264+ BF4F B7               or a
 265+ BF50 ED 42            sbc hl, bc
 266+ BF52
 267+ BF52              delayForStopBit:
 268+ BF52 2B               dec hl
 269+ BF53 7C               ld a, h
 270+ BF54 B5               or l
 271+ BF55 20 FB            jr nz, delayForStopBit
 272+ BF57
 273+ BF57 01 FD FF         ld bc, #fffd
 274+ BF5A 19               add hl, de
 275+ BF5B 19               add hl, de
 276+ BF5C 19               add hl, de
 277+ BF5D
 278+ BF5D              waitStartBitSecondByte:
 279+ BF5D ED 78            in a, (c)
 280+ BF5F E6 80            and #80
 281+ BF61 28 08            jr z, secondStartBitFound
 282+ BF63 2B               dec hl
 283+ BF64 7C               ld a, h
 284+ BF65 B5               or l
 285+ BF66 20 F5            jr nz, waitStartBitSecondByte
 286+ BF68
 287+ BF68                  ; No second byte
 288+ BF68                  ; No hace falta restaurar borde aquí, ya es negro.
 289+ BF68 F1               pop af
 290+ BF69 FB               ei
 291+ BF6A C9               ret
 292+ BF6B
 293+ BF6B              secondStartBitFound:
 294+ BF6B ED 78            in a, (c)
 295+ BF6D E6 80            and #80
 296+ BF6F 20 EC            jr nz, waitStartBitSecondByte
 297+ BF71 62               ld h, d
 298+ BF72 6B               ld l, e
 299+ BF73 01 02 00         ld bc, #0002
 300+ BF76 CB 3C            srl h
 301+ BF78 CB 1D            rr l
 302+ BF7A B7               or a
 303+ BF7B ED 42            sbc hl, bc
 304+ BF7D 01 FD FF         ld bc, #fffd
 305+ BF80 3E 80            ld a, #80
 306+ BF82 08               ex af, af
 307+ BF83              secondByteTune:
 308+ BF83 00               nop
 309+ BF84 00               nop
 310+ BF85 00               nop
 311+ BF86 00               nop
 312+ BF87 19               add hl, de
 313+ BF88
 314+ BF88              secondDelay:
 315+ BF88 2B               dec hl
 316+ BF89 7C               ld a, h
 317+ BF8A B5               or l
 318+ BF8B 20 FB            jr nz, secondDelay
 319+ BF8D
 320+ BF8D ED 78            in a, (c)
 321+ BF8F E6 80            and #80
 322+ BF91 28 09            jr z, secondZeroReceived
 323+ BF93              ; Second 1 received
 324+ BF93 08               ex af, af
 325+ BF94 37               scf
 326+ BF95 1F               rra
 327+ BF96 38 0D            jr c, secondByteFinished
 328+ BF98 08               ex af, af
 329+ BF99 C3 83 BF         jp secondByteTune
 330+ BF9C
 331+ BF9C              secondZeroReceived:
 332+ BF9C 08               ex af, af
 333+ BF9D B7               or a
 334+ BF9E 1F               rra
 335+ BF9F 38 04            jr c, secondByteFinished
 336+ BFA1 08               ex af, af
 337+ BFA2 C3 83 BF         jp secondByteTune
 338+ BFA5              secondByteFinished:
 339+ BFA5 21 B1 BF         ld hl, _isSecondByteAvail
 340+ BFA8 36 01            ld (hl), 1
 341+ BFAA 23               inc hl
 342+ BFAB 77               ld (hl), a              ; Guardar en _secondByte
 343+ BFAC
 344+ BFAC                  ; No hace falta restaurar borde aquí, ya es negro.
 345+ BFAC F1               pop af
 346+ BFAD FB               ei
 347+ BFAE C9               ret
 348+ BFAF
 349+ BFAF 0B 00        _baud dw 11 ; 54 - 2400 --- 25 - 4800 --- 11 - 9600
 350+ BFB1 00           _isSecondByteAvail db 0
 351+ BFB2 00           _secondByte        db 0
 352+ BFB3                  endmodule
# file closed: drivers/ay.asm
  49  BFB3                      ENDIF
  50  BFB3                  ENDIF
  51  BFB3
  52  BFB3              start:
  53  BFB3 ED 73 C3 C1      ld (saved_sp), sp
  54  BFB7 31 FE BF         ld sp, stack_top
  55  BFBA
  56  BFBA CD AC 92         call UI.init            ; Inicializa pantalla completa (IP: Scanning...)
  57  BFBD
  58  BFBD                  ; Mostrar mensaje en log
  59  BFBD 21 BA C0         ld hl, .msg_checking
  60  BFC0 CD 3B 80         call Display.putStrLog
  61  BFC3
  62  BFC3                  ; Inicializar UART
  63  BFC3 21 D2 C0         ld hl, .msg_preparing
  64  BFC6 CD 3B 80         call Display.putStrLog
  65  BFC9 CD 99 B3         call Uart.init
  66  BFCC
  67  BFCC                  ; Comprobar si ya hay conexión
  68  BFCC 21 E5 C0         ld hl, .msg_query_status
  69  BFCF CD 3B 80         call Display.putStrLog
  70  BFD2 CD 64 8A         call Wifi.checkConnection
  71  BFD5 30 36            jr nc, .already_connected  ; Si CF=0 (OK), estamos conectados
  72  BFD7
  73  BFD7                  ; Fallback: algunos firmwares no responden a CWJAP? pero sí tienen IP asignada.
  74  BFD7                  ; Si hay IP válida, consideramos que ya está conectado.
  75  BFD7 CD AB 90         call Wifi.getIP
  76  BFDA 38 1B            jr c, .no_preconn
  77  BFDC 3E 01            ld a, 1
  78  BFDE 32 5E 92         ld (Wifi.is_connected), a
  79  BFE1 21 75 92         ld hl, Wifi.connected_ssid
  80  BFE4 7E               ld a, (hl)
  81  BFE5 A7               and a
  82  BFE6 20 25            jr nz, .already_connected
  83  BFE8                  ; SSID desconocido -> mostrar marcador
  84  BFE8 21 FE C0         ld hl, .ssid_unknown
  85  BFEB 11 75 92         ld de, Wifi.connected_ssid
  86  BFEE              .copy_ssid_u
  87  BFEE 7E               ld a, (hl)
  88  BFEF 12               ld (de), a
  89  BFF0 23               inc hl
  90  BFF1 13               inc de
  91  BFF2 A7               and a
  92  BFF3 20 F9            jr nz, .copy_ssid_u
  93  BFF5 18 16            jr .already_connected
  94  BFF7
  95  BFF7              .no_preconn
  96  BFF7                  ; --- NO CONECTADO: inicialización completa ---
  97  BFF7 21 08 C1         ld hl, .msg_init_wifi
  98  BFFA CD 3B 80         call Display.putStrLog
  99  BFFD
 100  BFFD CD 90 8B         call Wifi.init
 101  C000 DA 9B C0         jp c, .init_failed
 102  C003
 103  C003                  ; Espera de calentamiento
 104  C003 06 7D            ld b, 125
 105  C005              .warmup
 106  C005 76               halt
 107  C006 10 FD            djnz .warmup
 108  C008
 109  C008                  ; Comprobación final
 110  C008 CD 64 8A         call Wifi.checkConnection
 111  C00B 38 0E            jr c, .not_connected
 112  C00D
 113  C00D              .already_connected:
 114  C00D                  ; --- CASO: CONECTADO ---
 115  C00D CD 6E 94         call UI.updateWifiStatus    ; Cambia de Scanning a Connected (Verde)
 116  C010 CD 53 93         call UI.ipShowConnected     ; Mostrar IP
 117  C013
 118  C013 CD 15 97         call UI.showConnectedDialog
 119  C016 30 09            jr nc, .force_scan       ; Usuario eligió 'Y' (Reconfigurar) -> Escanear
 120  C018
 121  C018                  ; Usuario eligió 'N' (Keep) -> Pantalla de éxito infinita
 122  C018 C3 61 95         jp UI.showConnectedSuccessScreen
 123  C01B
 124  C01B              .not_connected
 125  C01B                  ; --- MODIFICADO: Actualizar barra superior e inferior explícitamente ---
 126  C01B CD 4A 93         call UI.ipShowNotConnected  ; Pone "IP: not connected" en la barra superior
 127  C01E CD 6E 94         call UI.updateWifiStatus    ; Asegura que la barra inferior esté en ROJO (Disconnected)
 128  C021
 129  C021              .force_scan
 130  C021                  ; --- CASO: NO CONFIGURADO / REESCANEAR ---
 131  C021
 132  C021                  ; CRÍTICO: Resetear variables de UI antes de nueva búsqueda
 133  C021 AF               xor a
 134  C022 32 42 B3         ld (UI.cursor_position), a
 135  C025 32 43 B3         ld (UI.offset), a
 136  C028 32 C2 C1         ld (.scan_fail_reason), a    ; 0 = sin fallo, 1 = timeout, 2 = 0 redes
 137  C02B
 138  C02B 06 05            ld b, 5                 ; 5 intentos
 139  C02D
 140  C02D              .scan_loop
 141  C02D C5               push bc
 142  C02E
 143  C02E CD 8B 94         call UI.topClean
 144  C031                  gotoXY 1, 3
 144  C031 21 01 03    >    ld hl, 1 or (3<<8)
 144  C034 22 4C 82    >    ld (Display.coords), hl
 145  C037 21 25 C1         ld hl, .msg_scanning
 146  C03A CD 30 80         call Display.putStr
 147  C03D
 148  C03D CD F3 8C         call Wifi.getList
 149  C040
 150  C040 38 0D            jr c, .scan_timeout     ; CF=1 -> Error de comunicación
 151  C042
 152  C042 3A 59 92         ld a, (Wifi.networks_count)
 153  C045 A7               and a
 154  C046 20 30            jr nz, .scan_success    ; Encontradas -> Salir
 155  C048
 156  C048                  ; 0 redes encontradas
 157  C048 3E 02            ld a, 2
 158  C04A 32 C2 C1         ld (.scan_fail_reason), a
 159  C04D 18 05            jr .retry_wait
 160  C04F
 161  C04F              .scan_timeout
 162  C04F 3E 01            ld a, 1
 163  C051 32 C2 C1         ld (.scan_fail_reason), a
 164  C054
 165  C054              .retry_wait
 166  C054 C1               pop bc
 167  C055 C5               push bc
 168  C056
 169  C056                  ; Mostrar mensaje de reintento según tipo de fallo
 170  C056                  gotoXY 1, 5
 170  C056 21 01 05    >    ld hl, 1 or (5<<8)
 170  C059 22 4C 82    >    ld (Display.coords), hl
 171  C05C 3A C2 C1         ld a, (.scan_fail_reason)
 172  C05F FE 01            cp 1
 173  C061 20 05            jr nz, .show_no_networks
 174  C063 21 4D C1         ld hl, .msg_esp_timeout
 175  C066 18 03            jr .show_retry_msg
 176  C068              .show_no_networks
 177  C068 21 6D C1         ld hl, .msg_no_networks
 178  C06B              .show_retry_msg
 179  C06B CD 30 80         call Display.putStr
 180  C06E
 181  C06E 06 32            ld b, 50                ; Espera más larga para ver mensaje
 182  C070 76           .w  halt
 183  C071 10 FD            djnz .w
 184  C073
 185  C073 C1               pop bc
 186  C074 10 B7            djnz .scan_loop
 187  C076
 188  C076 18 05            jr .end_scan
 189  C078
 190  C078              .scan_success
 191  C078 C1               pop bc
 192  C079 AF               xor a
 193  C07A 32 C2 C1         ld (.scan_fail_reason), a    ; Éxito
 194  C07D
 195  C07D              .end_scan
 196  C07D                  ; Si no hay redes, mostrar razón en el log
 197  C07D 3A 59 92         ld a, (Wifi.networks_count)
 198  C080 A7               and a
 199  C081 20 12            jr nz, .show_list
 200  C083
 201  C083 3A C2 C1         ld a, (.scan_fail_reason)
 202  C086 FE 01            cp 1
 203  C088 20 05            jr nz, .log_no_networks
 204  C08A 21 8C C1         ld hl, .msg_log_timeout
 205  C08D 18 03            jr .log_reason
 206  C08F              .log_no_networks
 207  C08F 21 A6 C1         ld hl, .msg_log_empty
 208  C092              .log_reason
 209  C092 CD 3B 80         call Display.putStrLog
 210  C095
 211  C095              .show_list
 212  C095 CD 73 95         call UI.renderList
 213  C098 C3 68 98         jp   UI.uiLoop
 214  C09B
 215  C09B              .init_failed
 216  C09B CD B6 81         call Display.clrscr
 217  C09E 21 31 C1         ld hl, .msg_err_init
 218  C0A1 CD 30 80         call Display.putStr
 219  C0A4 18 00            jr .wait_exit
 220  C0A6
 221  C0A6              .wait_exit
 222  C0A6 21 42 C1         ld hl, .msg_exit
 223  C0A9 CD 30 80         call Display.putStr
 224  C0AC 76           .k  halt
 225  C0AD CD 2E B5         call Keyboard.inKey
 226  C0B0 A7               and a
 227  C0B1 28 F9            jr z, .k
 228  C0B3 C9               ret
 229  C0B4
 230  C0B4              .exit_clean
 231  C0B4 ED 7B C3 C1      ld sp, (saved_sp)
 232  C0B8 FB               ei
 233  C0B9 C9               ret
 234  C0BA
 235  C0BA              ; Textos auxiliares
 236  C0BA 43 68 65 63  .msg_checking   db "Checking connection...", 13, 0
 236  C0BE 6B 69 6E 67
 236  C0C2 20 63 6F 6E
 236  C0C6 6E 65 63 74
 236  C0CA 69 6F 6E 2E
 236  C0CE 2E 2E 0D 00
 237  C0D2 50 72 65 70  .msg_preparing  db "Preparing UART...", 13, 0
 237  C0D6 61 72 69 6E
 237  C0DA 67 20 55 41
 237  C0DE 52 54 2E 2E
 237  C0E2 2E 0D 00
 238  C0E5 43 68 65 63  .msg_query_status db "Checking WiFi status...", 13, 0
 238  C0E9 6B 69 6E 67
 238  C0ED 20 57 69 46
 238  C0F1 69 20 73 74
 238  C0F5 61 74 75 73
 238  C0F9 2E 2E 2E 0D
 238  C0FD 00
 239  C0FE 28 75 6E 6B  .ssid_unknown     db "(unknown)", 0
 239  C102 6E 6F 77 6E
 239  C106 29 00
 240  C108 49 6E 69 74  .msg_init_wifi  db "Initializing WiFi module...", 13, 0
 240  C10C 69 61 6C 69
 240  C110 7A 69 6E 67
 240  C114 20 57 69 46
 240  C118 69 20 6D 6F
 240  C11C 64 75 6C 65
 240  C120 2E 2E 2E 0D
 240  C124 00
 241  C125 53 63 61 6E  .msg_scanning   db "Scanning...", 0
 241  C129 6E 69 6E 67
 241  C12D 2E 2E 2E 00
 242  C131 57 69 46 69  .msg_err_init   db "WiFi Init Failed", 0
 242  C135 20 49 6E 69
 242  C139 74 20 46 61
 242  C13D 69 6C 65 64
 242  C141 00
 243  C142 20 50 72 65  .msg_exit       db " Press key", 0
 243  C146 73 73 20 6B
 243  C14A 65 79 00
 244  C14D 45 53 50 20  .msg_esp_timeout db "ESP not responding, retrying...", 0
 244  C151 6E 6F 74 20
 244  C155 72 65 73 70
 244  C159 6F 6E 64 69
 244  C15D 6E 67 2C 20
 244  C161 72 65 74 72
 244  C165 79 69 6E 67
 244  C169 2E 2E 2E 00
 245  C16D 4E 6F 20 6E  .msg_no_networks db "No networks found, retrying...", 0
 245  C171 65 74 77 6F
 245  C175 72 6B 73 20
 245  C179 66 6F 75 6E
 245  C17D 64 2C 20 72
 245  C181 65 74 72 79
 245  C185 69 6E 67 2E
 245  C189 2E 2E 00
 246  C18C 53 63 61 6E  .msg_log_timeout db "Scan failed: ESP timeout", 13, 0
 246  C190 20 66 61 69
 246  C194 6C 65 64 3A
 246  C198 20 45 53 50
 246  C19C 20 74 69 6D
 246  C1A0 65 6F 75 74
 246  C1A4 0D 00
 247  C1A6 53 63 61 6E  .msg_log_empty   db "Scan complete: no networks", 13, 0
 247  C1AA 20 63 6F 6D
 247  C1AE 70 6C 65 74
 247  C1B2 65 3A 20 6E
 247  C1B6 6F 20 6E 65
 247  C1BA 74 77 6F 72
 247  C1BE 6B 73 0D 00
 248  C1C2
 249  C1C2              ; Variables
 250  C1C2 00           .scan_fail_reason db 0          ; 0=ok, 1=timeout, 2=empty
 251  C1C3 00 00        saved_sp dw 0
 252  C1C5
 253  C1C5              program_end:
 254  C1C5
 255  C1C5                  ; Build-time safety: ensure code/data does not overlap the runtime buffer at #C000
main.asm(256): error: [ASSERT] Assertion failed:  program_end <= buffer
 256  C1C5                  ASSERT program_end <= buffer
 257  C1C5
 258  C1C5                  IFDEF TAP
 259  C1C5 ~                    ; ==========================================
 260  C1C5 ~                    ; Formato TAP completo (loader + código)
 261  C1C5 ~                    ; ==========================================
 262  C1C5 ~
 263  C1C5 ~                    ; Definir loader BASIC en zona temporal
 264  C1C5 ~                    ORG #6000
 265  C1C5 ~            basic_start:
 266  C1C5 ~                    ; Línea 10: CLEAR 32767
 267  C1C5 ~                    db #00, #0A                 ; Número de línea (10) big-endian
 268  C1C5 ~                    dw line10end - line10start ; Longitud del contenido
 269  C1C5 ~            line10start:
 270  C1C5 ~                    db #FD                      ; CLEAR
 271  C1C5 ~                    db '3','2','7','6','7'      ; "32767" como texto
 272  C1C5 ~                    db #0E, #00, #00            ; Marcador de número
 273  C1C5 ~                    dw 32767                    ; Valor numérico
 274  C1C5 ~                    db #00                      ; Exponente
 275  C1C5 ~                    db #0D                      ; ENTER
 276  C1C5 ~            line10end:
 277  C1C5 ~
 278  C1C5 ~                    ; Línea 20: LOAD ""CODE
 279  C1C5 ~                    db #00, #14                 ; Número de línea (20)
 280  C1C5 ~                    dw line20end - line20start
 281  C1C5 ~            line20start:
 282  C1C5 ~                    db #EF                      ; LOAD
 283  C1C5 ~                    db '"', '"'                 ; ""
 284  C1C5 ~                    db #AF                      ; CODE
 285  C1C5 ~                    db #0D
 286  C1C5 ~            line20end:
 287  C1C5 ~
 288  C1C5 ~                    ; Línea 30: RANDOMIZE USR 32768
 289  C1C5 ~                    db #00, #1E                 ; Número de línea (30)
 290  C1C5 ~                    dw line30end - line30start
 291  C1C5 ~            line30start:
 292  C1C5 ~                    db #F9                      ; RANDOMIZE
 293  C1C5 ~                    db #C0                      ; USR
 294  C1C5 ~                    db '3','2','7','6','8'      ; "32768"
 295  C1C5 ~                    db #0E, #00, #00
 296  C1C5 ~                    dw 32768
 297  C1C5 ~                    db #00
 298  C1C5 ~                    db #0D
 299  C1C5 ~            line30end:
 300  C1C5 ~            basic_end:
 301  C1C5 ~
 302  C1C5 ~                    ; Generar TAP
 303  C1C5 ~                    emptytap "netmanzx.tap"
 304  C1C5 ~                    savetap "netmanzx.tap", BASIC, "netmanzx", basic_start, basic_end - basic_start, 10
 305  C1C5 ~                    savetap "netmanzx.tap", CODE, "netmanzx", text, program_end - text, text
 306  C1C5 ~
 307  C1C5                  ELSE
 308  C1C5                      ; ==========================================
 309  C1C5                      ; Formato +3DOS estándar
 310  C1C5                      ; ==========================================
 311  C1C5                      save3dos "netmanzx.cod", text, program_end - text
 312  C1C5                  ENDIF
# file closed: main.asm
